(ccopy_reg
_reconstructor
p0
(cgraph
Graph
p1
c__builtin__
object
p2
Ntp3
Rp4
(dp5
S'_Graph__graph_dict'
p6
(dp7
I0
(lp8
I69
asI1
(lp9
I84
aI36
aI50
asI2
(lp10
I89
asI3
(lp11
I82
aI68
asI4
(lp12
I85
asI5
(lp13
I76
aI57
asI6
(lp14
I30
aI86
asI7
(lp15
I38
aI67
asI8
(lp16
I88
asI9
(lp17
I42
aI14
asI10
(lp18
I14
aI13
asI11
(lp19
I85
aI92
asI12
(lp20
I82
aI29
asI13
(lp21
I10
aI48
asI14
(lp22
I10
aI9
aI82
asI15
(lp23
I36
asI16
(lp24
I22
aI23
asI17
(lp25
I33
aI39
asI18
(lp26
I82
aI28
aI55
aI84
asI19
(lp27
I98
asI20
(lp28
I26
aI89
asI21
(lp29
I35
asI22
(lp30
I16
aI91
aI30
asI23
(lp31
I16
asI24
(lp32
I64
aI73
asI25
(lp33
I79
aI42
asI26
(lp34
I20
aI87
aI80
asI27
(lp35
I61
aI70
asI28
(lp36
I18
asI29
(lp37
I12
aI41
asI30
(lp38
I6
aI22
asI31
(lp39
I57
aI43
asI32
(lp40
I56
asI33
(lp41
I17
aI46
asI34
(lp42
I46
aI96
asI35
(lp43
I21
aI67
aI47
aI74
aI77
asI36
(lp44
I15
aI1
asI37
(lp45
I75
asI38
(lp46
I7
aI45
aI72
asI39
(lp47
I17
asI40
(lp48
I82
aI71
asI41
(lp49
I29
aI63
asI42
(lp50
I9
aI25
asI43
(lp51
I31
asI44
(lp52
I71
aI53
asI45
(lp53
I38
aI49
asI46
(lp54
I33
aI34
aI79
aI85
asI47
(lp55
I35
aI91
aI97
asI48
(lp56
I13
asI49
(lp57
I45
aI98
asI50
(lp58
I1
aI94
asI51
(lp59
I97
aI56
asI52
(lp60
I57
asI53
(lp61
I44
asI54
(lp62
I98
asI55
(lp63
I18
aI69
asI56
(lp64
I32
aI51
aI83
asI57
(lp65
I31
aI52
aI5
aI98
asI58
(lp66
I64
asI59
(lp67
I91
asI60
(lp68
I87
aI95
asI61
(lp69
I27
aI88
aI75
asI62
(lp70
I87
aI93
asI63
(lp71
I41
aI81
asI64
(lp72
I24
aI58
aI82
asI65
(lp73
I77
asI66
(lp74
I89
asI67
(lp75
I35
aI7
asI68
(lp76
I3
asI69
(lp77
I0
aI55
asI70
(lp78
I27
asI71
(lp79
I44
aI40
aI90
asI72
(lp80
I38
asI73
(lp81
I24
asI74
(lp82
I35
aI79
asI75
(lp83
I37
aI61
aI78
asI76
(lp84
I5
aI85
asI77
(lp85
I65
aI35
asI78
(lp86
I75
asI79
(lp87
I25
aI46
aI74
aI88
asI80
(lp88
I26
asI81
(lp89
I63
asI82
(lp90
I3
aI12
aI18
aI40
aI64
aI14
asI83
(lp91
I56
aI87
asI84
(lp92
I1
aI18
asI85
(lp93
I4
aI11
aI76
aI46
asI86
(lp94
I6
asI87
(lp95
I26
aI60
aI62
aI83
asI88
(lp96
I8
aI61
aI79
asI89
(lp97
I2
aI66
aI20
aI99
asI90
(lp98
I71
asI91
(lp99
I22
aI59
aI47
asI92
(lp100
I11
asI93
(lp101
I62
asI94
(lp102
I50
asI95
(lp103
I60
asI96
(lp104
I34
asI97
(lp105
I51
aI47
asI98
(lp106
I19
aI49
aI54
aI57
asI99
(lp107
I89
assb(igrid
Grid
p108
(dp109
S'other_grid'
p110
(dp111
I0
(lp112
I1
aI0
aI1
asI1
(lp113
I2
aI8
aI3
asI2
(lp114
I3
aI5
aI6
asI3
(lp115
I1
aI5
aI2
asI4
(lp116
I5
aI0
aI1
asI5
(lp117
I2
aI2
aI2
asI6
(lp118
I9
aI3
aI2
asI7
(lp119
I7
aI9
aI2
asI8
(lp120
I8
aI5
aI3
asI9
(lp121
I8
aI6
aI2
asI10
(lp122
I6
aI7
aI3
asI11
(lp123
I6
aI2
aI1
asI12
(lp124
I2
aI6
aI1
asI13
(lp125
I5
aI9
aI1
asI14
(lp126
I6
aI6
aI3
asI15
(lp127
I0
aI8
aI1
asI16
(lp128
I6
aI8
aI2
asI17
(lp129
I7
aI0
aI1
asI18
(lp130
I3
aI4
aI4
asI19
(lp131
I0
aI0
aI1
asI20
(lp132
I7
aI3
aI2
asI21
(lp133
I6
aI4
aI1
asI22
(lp134
I7
aI7
aI3
asI23
(lp135
I6
aI9
aI1
asI24
(lp136
I1
aI7
aI2
asI25
(lp137
I9
aI5
aI2
asI26
(lp138
I8
aI2
aI1
asI27
(lp139
I5
aI6
aI2
asI28
(lp140
I3
aI3
aI1
asI29
(lp141
I2
aI7
aI2
asI30
(lp142
I9
aI4
aI2
asI31
(lp143
I0
aI3
aI1
asI32
(lp144
I4
aI1
aI1
asI33
(lp145
I8
aI1
aI4
asI34
(lp146
I8
aI0
aI2
asI35
(lp147
I7
aI4
aI5
asI36
(lp148
I1
aI8
aI2
asI37
(lp149
I4
aI6
aI3
asI38
(lp150
I8
aI9
aI3
asI39
(lp151
I6
aI0
aI1
asI40
(lp152
I2
aI4
aI2
asI41
(lp153
I2
aI9
aI2
asI42
(lp154
I9
aI6
aI2
asI43
(lp155
I0
aI4
aI1
asI44
(lp156
I2
aI1
aI2
asI45
(lp157
I5
aI8
aI2
asI46
(lp158
I7
aI1
aI4
asI47
(lp159
I7
aI6
aI3
asI48
(lp160
I4
aI9
aI1
asI49
(lp161
I3
aI6
aI1
asI50
(lp162
I3
aI8
aI2
asI51
(lp163
I5
aI3
aI2
asI52
(lp164
I1
aI3
aI3
asI53
(lp165
I2
aI0
aI1
asI54
(lp166
I0
aI1
aI1
asI55
(lp167
I3
aI2
aI2
asI56
(lp168
I5
aI1
aI2
asI57
(lp169
I1
aI2
aI4
asI58
(lp170
I0
aI6
aI1
asI59
(lp171
I8
aI8
aI1
asI60
(lp172
I4
aI3
aI2
asI61
(lp173
I5
aI7
aI1
asI62
(lp174
I9
aI7
aI2
asI63
(lp175
I1
aI9
aI2
asI64
(lp176
I1
aI6
aI3
asI65
(lp177
I3
aI0
aI1
asI66
(lp178
I5
aI4
aI4
asI67
(lp179
I7
aI8
aI2
asI68
(lp180
I0
aI5
aI1
asI69
(lp181
I1
aI1
aI2
asI70
(lp182
I5
aI5
aI1
asI71
(lp183
I2
aI3
aI3
asI72
(lp184
I9
aI9
aI1
asI73
(lp185
I0
aI7
aI1
asI74
(lp186
I8
aI3
aI2
asI75
(lp187
I4
aI7
aI3
asI76
(lp188
I3
aI1
aI2
asI77
(lp189
I4
aI0
aI2
asI78
(lp190
I4
aI8
aI1
asI79
(lp191
I8
aI4
aI4
asI80
(lp192
I9
aI1
aI1
asI81
(lp193
I0
aI9
aI1
asI82
(lp194
I2
aI5
aI6
asI83
(lp195
I5
aI2
aI2
asI84
(lp196
I3
aI7
aI2
asI85
(lp197
I6
aI1
aI4
asI86
(lp198
I9
aI2
aI1
asI87
(lp199
I6
aI3
aI4
asI88
(lp200
I7
aI5
aI3
asI89
(lp201
I4
aI4
aI4
asI90
(lp202
I1
aI4
aI1
asI91
(lp203
I8
aI7
aI3
asI92
(lp204
I7
aI2
aI1
asI93
(lp205
I9
aI8
aI1
asI94
(lp206
I3
aI9
aI1
asI95
(lp207
I4
aI2
aI1
asI96
(lp208
I9
aI0
aI1
asI97
(lp209
I6
aI5
aI2
asI98
(lp210
I0
aI2
aI4
asI99
(lp211
I4
aI5
aI1
assS'rows'
p212
I10
sS'cols'
p213
I10
sS'graph'
p214
g4
sS'grid'
p215
(dp216
I0
g165
sI1
g113
sI2
g182
sI3
g194
sI4
g116
sI5
g188
sI6
g118
sI7
g119
sI8
g137
sI9
g159
sI10
g128
sI11
g151
sI12
g196
sI13
g157
sI14
g122
sI15
g127
sI16
g135
sI17
g158
sI18
g130
sI19
g131
sI20
g132
sI21
g133
sI22
g134
sI23
g125
sI24
g136
sI25
g154
sI26
g204
sI27
g139
sI28
g152
sI29
g162
sI30
g142
sI31
g115
sI32
g144
sI33
g146
sI34
g192
sI35
g147
sI36
g148
sI37
g187
sI38
g150
sI39
g123
sI40
g183
sI41
g153
sI42
g121
sI43
g180
sI44
g181
sI45
g117
sI46
g145
sI47
g200
sI48
g190
sI49
g169
sI50
g206
sI51
g163
sI52
g155
sI53
g112
sI54
g166
sI55
g167
sI56
g207
sI57
g202
sI58
g170
sI59
g171
sI60
g172
sI61
g126
sI62
g174
sI63
g175
sI64
g176
sI65
g177
sI66
g201
sI67
g179
sI68
g124
sI69
g156
sI70
g173
sI71
g164
sI72
g184
sI73
g185
sI74
g186
sI75
g149
sI76
g168
sI77
g189
sI78
g161
sI79
g191
sI80
g138
sI81
g193
sI82
g114
sI83
g195
sI84
g141
sI85
g197
sI86
g198
sI87
g199
sI88
g120
sI89
g178
sI90
g143
sI91
g203
sI92
g129
sI93
g205
sI94
g160
sI95
g140
sI96
g208
sI97
g209
sI98
g210
sI99
g211
ssbtp217
.