(ccopy_reg
_reconstructor
p0
(cgraph
Graph
p1
c__builtin__
object
p2
Ntp3
Rp4
(dp5
S'_Graph__graph_dict'
p6
(dp7
I0
(lp8
I24
asI1
(lp9
I73
asI2
(lp10
I21
aI14
aI56
asI3
(lp11
I89
asI4
(lp12
I61
asI5
(lp13
I52
asI6
(lp14
I97
aI40
asI7
(lp15
I16
aI30
asI8
(lp16
I40
asI9
(lp17
I66
aI84
asI10
(lp18
I96
aI34
asI11
(lp19
I21
aI27
asI12
(lp20
I83
aI35
asI13
(lp21
I72
aI32
asI14
(lp22
I2
asI15
(lp23
I19
asI16
(lp24
I7
aI97
aI42
aI85
asI17
(lp25
I53
asI18
(lp26
I54
asI19
(lp27
I15
aI48
aI87
asI20
(lp28
I26
aI39
aI66
asI21
(lp29
I2
aI11
aI94
aI67
asI22
(lp30
I95
aI58
asI23
(lp31
I88
aI36
aI73
asI24
(lp32
I0
aI85
asI25
(lp33
I75
asI26
(lp34
I20
aI69
aI48
asI27
(lp35
I11
aI74
aI99
asI28
(lp36
I85
aI64
asI29
(lp37
I38
aI60
asI30
(lp38
I7
asI31
(lp39
I98
asI32
(lp40
I13
asI33
(lp41
I98
asI34
(lp42
I10
asI35
(lp43
I12
aI72
asI36
(lp44
I23
asI37
(lp45
I83
aI50
aI93
asI38
(lp46
I29
aI58
asI39
(lp47
I20
aI96
asI40
(lp48
I8
aI6
asI41
(lp49
I87
asI42
(lp50
I16
aI95
asI43
(lp51
I62
asI44
(lp52
I61
aI45
asI45
(lp53
I44
asI46
(lp54
I74
asI47
(lp55
I79
asI48
(lp56
I19
aI26
aI49
asI49
(lp57
I48
asI50
(lp58
I37
aI92
asI51
(lp59
I93
aI68
asI52
(lp60
I5
aI83
asI53
(lp61
I17
aI58
asI54
(lp62
I18
aI65
asI55
(lp63
I69
asI56
(lp64
I2
aI57
aI79
aI91
asI57
(lp65
I56
asI58
(lp66
I38
aI53
aI22
asI59
(lp67
I84
asI60
(lp68
I29
aI63
asI61
(lp69
I4
aI44
aI78
aI76
aI88
asI62
(lp70
I43
aI77
asI63
(lp71
I60
asI64
(lp72
I28
asI65
(lp73
I54
aI97
asI66
(lp74
I9
aI20
aI70
asI67
(lp75
I21
aI71
asI68
(lp76
I51
asI69
(lp77
I26
aI55
aI73
asI70
(lp78
I66
aI78
asI71
(lp79
I67
asI72
(lp80
I13
aI35
asI73
(lp81
I1
aI69
aI23
aI86
asI74
(lp82
I46
aI27
asI75
(lp83
I25
aI88
aI80
asI76
(lp84
I61
aI82
asI77
(lp85
I62
aI78
aI83
asI78
(lp86
I61
aI77
aI70
asI79
(lp87
I47
aI56
asI80
(lp88
I75
asI81
(lp89
I88
asI82
(lp90
I76
asI83
(lp91
I12
aI37
aI52
aI77
aI98
asI84
(lp92
I59
aI9
aI94
asI85
(lp93
I24
aI28
aI16
asI86
(lp94
I73
aI90
aI97
asI87
(lp95
I41
aI19
asI88
(lp96
I23
aI75
aI81
aI61
asI89
(lp97
I3
aI92
asI90
(lp98
I86
asI91
(lp99
I56
asI92
(lp100
I89
aI50
asI93
(lp101
I51
aI37
asI94
(lp102
I21
aI84
asI95
(lp103
I22
aI42
asI96
(lp104
I10
aI39
asI97
(lp105
I6
aI16
aI65
aI86
asI98
(lp106
I31
aI33
aI83
asI99
(lp107
I27
assb(igrid
Grid
p108
(dp109
S'other_grid'
p110
(dp111
I0
(lp112
I1
aI7
asI1
(lp113
I8
aI5
asI2
(lp114
I4
aI3
asI3
(lp115
I1
aI4
asI4
(lp116
I7
aI9
asI5
(lp117
I1
aI0
asI6
(lp118
I3
aI6
asI7
(lp119
I3
aI3
asI8
(lp120
I0
aI5
asI9
(lp121
I9
aI6
asI10
(lp122
I4
aI8
asI11
(lp123
I7
aI2
asI12
(lp124
I4
aI0
asI13
(lp125
I6
aI0
asI14
(lp126
I4
aI2
asI15
(lp127
I3
aI8
asI16
(lp128
I4
aI5
asI17
(lp129
I2
aI9
asI18
(lp130
I9
aI8
asI19
(lp131
I3
aI7
asI20
(lp132
I7
aI6
asI21
(lp133
I6
aI2
asI22
(lp134
I5
aI8
asI23
(lp135
I6
aI6
asI24
(lp136
I1
aI6
asI25
(lp137
I7
aI3
asI26
(lp138
I6
aI3
asI27
(lp139
I8
aI2
asI28
(lp140
I0
aI4
asI29
(lp141
I1
aI8
asI30
(lp142
I2
aI3
asI31
(lp143
I9
aI0
asI32
(lp144
I7
aI0
asI33
(lp145
I7
aI1
asI34
(lp146
I5
aI9
asI35
(lp147
I5
aI0
asI36
(lp148
I7
aI7
asI37
(lp149
I0
aI0
asI38
(lp150
I2
aI8
asI39
(lp151
I6
aI7
asI40
(lp152
I0
aI6
asI41
(lp153
I2
aI6
asI42
(lp154
I5
aI6
asI43
(lp155
I2
aI1
asI44
(lp156
I8
aI9
asI45
(lp157
I9
aI9
asI46
(lp158
I9
aI1
asI47
(lp159
I2
aI5
asI48
(lp160
I5
aI3
asI49
(lp161
I5
aI2
asI50
(lp162
I0
aI1
asI51
(lp163
I1
aI2
asI52
(lp164
I2
aI0
asI53
(lp165
I3
aI9
asI54
(lp166
I8
aI8
asI55
(lp167
I9
aI3
asI56
(lp168
I3
aI4
asI57
(lp169
I2
aI4
asI58
(lp170
I4
aI9
asI59
(lp171
I9
aI7
asI60
(lp172
I0
aI8
asI61
(lp173
I6
aI9
asI62
(lp174
I3
aI1
asI63
(lp175
I0
aI7
asI64
(lp176
I0
aI3
asI65
(lp177
I7
aI8
asI66
(lp178
I8
aI6
asI67
(lp179
I5
aI1
asI68
(lp180
I2
aI2
asI69
(lp181
I8
aI3
asI70
(lp182
I8
aI7
asI71
(lp183
I4
aI1
asI72
(lp184
I6
aI1
asI73
(lp185
I7
aI5
asI74
(lp186
I8
aI1
asI75
(lp187
I7
aI4
asI76
(lp188
I1
aI9
asI77
(lp189
I3
aI2
asI78
(lp190
I6
aI8
asI79
(lp191
I3
aI5
asI80
(lp192
I8
aI4
asI81
(lp193
I6
aI4
asI82
(lp194
I0
aI9
asI83
(lp195
I3
aI0
asI84
(lp196
I9
aI5
asI85
(lp197
I1
aI5
asI86
(lp198
I5
aI5
asI87
(lp199
I2
aI7
asI88
(lp200
I6
aI5
asI89
(lp201
I1
aI3
asI90
(lp202
I5
aI4
asI91
(lp203
I4
aI4
asI92
(lp204
I0
aI2
asI93
(lp205
I1
aI1
asI94
(lp206
I9
aI4
asI95
(lp207
I5
aI7
asI96
(lp208
I4
aI7
asI97
(lp209
I4
aI6
asI98
(lp210
I8
aI0
asI99
(lp211
I9
aI2
assS'rows'
p212
I10
sS'cols'
p213
I10
sS'graph'
p214
g4
sS'grid'
p215
(dp216
I0
(lp217
I0
aI0
asI1
(lp218
I2
aI2
asI2
(lp219
I4
aI4
asI3
(lp220
I3
aI2
asI4
(lp221
I4
aI8
asI5
(lp222
I8
aI1
asI6
(lp223
I0
aI6
asI7
(lp224
I7
aI1
asI8
(lp225
I0
aI8
asI9
(lp226
I3
aI0
asI10
(lp227
I8
aI9
asI11
(lp228
I7
aI7
asI12
(lp229
I5
aI4
asI13
(lp230
I1
aI7
asI14
(lp231
I4
aI5
asI15
(lp232
I9
aI5
asI16
(lp233
I5
aI1
asI17
(lp234
I0
aI9
asI18
(lp235
I0
aI2
asI19
(lp236
I8
aI6
asI20
(lp237
I3
aI4
asI21
(lp238
I5
aI3
asI22
(lp239
I2
aI9
asI23
(lp240
I6
aI5
asI24
(lp241
I1
aI0
asI25
(lp242
I9
aI2
asI26
(lp243
I3
aI5
asI27
(lp244
I7
aI8
asI28
(lp245
I8
aI3
asI29
(lp246
I5
aI6
asI30
(lp247
I8
aI0
asI31
(lp248
I5
aI8
asI32
(lp249
I1
aI8
asI33
(lp250
I6
aI7
asI34
(lp251
I9
aI9
asI35
(lp252
I5
aI5
asI36
(lp253
I6
aI4
asI37
(lp254
I7
aI4
asI38
(lp255
I3
aI7
asI39
(lp256
I6
aI8
asI40
(lp257
I0
aI7
asI41
(lp258
I9
aI7
asI42
(lp259
I4
aI6
asI43
(lp260
I9
aI0
asI44
(lp261
I3
aI6
asI45
(lp262
I2
aI5
asI46
(lp263
I5
aI9
asI47
(lp264
I2
aI6
asI48
(lp265
I8
aI7
asI49
(lp266
I9
aI8
asI50
(lp267
I5
aI2
asI51
(lp268
I8
aI4
asI52
(lp269
I7
aI2
asI53
(lp270
I1
aI9
asI54
(lp271
I0
aI1
asI55
(lp272
I1
aI4
asI56
(lp273
I1
aI5
asI57
(lp274
I0
aI4
asI58
(lp275
I2
aI8
asI59
(lp276
I4
aI0
asI60
(lp277
I7
aI5
asI61
(lp278
I4
aI7
asI62
(lp279
I7
aI0
asI63
(lp280
I8
aI5
asI64
(lp281
I9
aI3
asI65
(lp282
I1
aI1
asI66
(lp283
I2
aI0
asI67
(lp284
I6
aI1
asI68
(lp285
I9
aI4
asI69
(lp286
I2
aI4
asI70
(lp287
I2
aI1
asI71
(lp288
I6
aI0
asI72
(lp289
I2
aI7
asI73
(lp290
I2
aI3
asI74
(lp291
I6
aI9
asI75
(lp292
I8
aI2
asI76
(lp293
I4
aI9
asI77
(lp294
I6
aI2
asI78
(lp295
I3
aI3
asI79
(lp296
I1
aI6
asI80
(lp297
I9
aI1
asI81
(lp298
I7
aI6
asI82
(lp299
I3
aI9
asI83
(lp300
I6
aI3
asI84
(lp301
I3
aI1
asI85
(lp302
I5
aI0
asI86
(lp303
I1
aI3
asI87
(lp304
I9
aI6
asI88
(lp305
I6
aI6
asI89
(lp306
I4
aI2
asI90
(lp307
I0
aI3
asI91
(lp308
I0
aI5
asI92
(lp309
I4
aI1
asI93
(lp310
I7
aI3
asI94
(lp311
I4
aI3
asI95
(lp312
I3
aI8
asI96
(lp313
I7
aI9
asI97
(lp314
I1
aI2
asI98
(lp315
I5
aI7
asI99
(lp316
I8
aI8
assbtp317
.