(lp0
(ipoly
Poly
p1
(dp2
S'closed'
p3
I01
sS'lw'
p4
I1
sS'id'
p5
I0
sS'pts'
p6
(lp7
(I0
I0
I-1
tp8
a(I6
I0
I1
tp9
a(I6
I6
I1
tp10
a(I0
I6
I0
tp11
asS'holes'
p12
(lp13
(lp14
asba(ipoly
Poly
p15
(dp16
S'closed'
p17
I01
sS'lw'
p18
I1
sS'id'
p19
I1
sS'pts'
p20
(lp21
(I-1
I-1
I0
tp22
a(I-6
I-1
I0
tp23
a(I-6
I-6
I0
tp24
a(I-1
I-6
I0
tp25
asS'holes'
p26
(lp27
(lp28
(I-2
I-3
I0
tp29
a(I-3
I-3
I1
tp30
a(I-2
I-2
I0
tp31
aasba.