(lp0
(i__main__
Theme
p1
(dp2
S'x'
p3
I50
sS'y'
p4
I22
sS'under_mouse'
p5
I00
sS'selected'
p6
I00
sS'content'
p7
S'sin.com'
p8
sba(i__main__
Theme
p9
(dp10
S'x'
p11
I79
sS'y'
p12
I58
sS'under_mouse'
p13
I00
sS'selected'
p14
I00
sS'content'
p15
S'mat.geo.coo'
p16
sba(i__main__
Theme
p17
(dp18
S'x'
p19
I273
sS'y'
p20
I18
sS'under_mouse'
p21
I00
sS'selected'
p22
I00
sS'content'
p23
S'pst.rcr'
p24
sba.