(dp0
S'a'
p1
(iglyphs
Glyph
p2
(dp3
S'name'
p4
S'a'
p5
sS'width'
p6
I5
sS'paths'
p7
(lp8
(lp9
a(lp10
(F0.0
F-2.0
(dp11
tp12
a(F0.0
F-1.0
(dp13
tp14
a(F1.0
F0.0
(dp15
tp16
a(F3.0
F0.0
(dp17
tp18
a(F4.0
F-1.0
(dp19
tp20
a(F4.0
F-5.0
(dp21
tp22
a(F3.0
F-6.0
(dp23
tp24
a(F1.0
F-6.0
(dp25
tp26
a(F0.0
F-5.0
(dp27
tp28
aa(lp29
(F0.0
F-2.0
(dp30
tp31
a(F4.0
F-4.0
(dp32
tp33
aa(lp34
(F4.0
F-1.0
(dp35
tp36
a(F4.0
F0.0
(dp37
tp38
aasbsVb
p39
(iglyphs
Glyph
p40
(dp41
S'current_path'
p42
NsS'name'
p43
Vb
p44
sS'width'
p45
I5
sS'paths'
p46
(lp47
(lp48
(F0.0
F-9.0
(dp49
tp50
a(F0.0
F0.0
(dp51
tp52
aa(lp53
(F0.0
F-1.0
(dp54
tp55
a(F1.0
F0.0
(dp56
tp57
a(F3.0
F0.0
(dp58
tp59
a(F4.0
F-1.0
(dp60
tp61
a(F4.0
F-5.0
(dp62
tp63
a(F3.0
F-6.0
(dp64
tp65
a(F1.0
F-6.0
(dp66
tp67
a(F0.0
F-5.0
(dp68
tp69
aasbsVc
p70
(iglyphs
Glyph
p71
(dp72
S'current_path'
p73
I-1
sS'name'
p74
Vc
p75
sS'width'
p76
I5
sS'paths'
p77
(lp78
(lp79
(F4.0
F-5.0
(dp80
tp81
a(F3.0
F-6.0
(dp82
tp83
a(F1.0
F-6.0
(dp84
tp85
a(F0.0
F-5.0
(dp86
tp87
a(F0.0
F-1.0
(dp88
tp89
a(F1.0
F0.0
(dp90
tp91
a(F3.0
F0.0
(dp92
tp93
a(F4.0
F-1.0
(dp94
tp95
aasbsVd
p96
(iglyphs
Glyph
p97
(dp98
S'current_path'
p99
NsS'name'
p100
Vd
p101
sS'width'
p102
I5
sS'paths'
p103
(lp104
(lp105
(F4.0
F-9.0
(dp106
tp107
a(F4.0
F0.0
(dp108
tp109
aa(lp110
(F4.0
F-1.0
(dp111
tp112
a(F3.0
F0.0
(dp113
tp114
a(F1.0
F0.0
(dp115
tp116
a(F0.0
F-1.0
(dp117
tp118
a(F0.0
F-5.0
(dp119
tp120
a(F1.0
F-6.0
(dp121
tp122
a(F3.0
F-6.0
(dp123
tp124
a(F4.0
F-5.0
(dp125
tp126
aasbsVe
p127
(iglyphs
Glyph
p128
(dp129
S'name'
p130
Ve
p131
sS'width'
p132
I5
sS'paths'
p133
(lp134
(lp135
(F4.0
F-1.0
(dp136
tp137
a(F3.0
F0.0
(dp138
tp139
a(F1.0
F0.0
(dp140
tp141
a(F0.0
F-1.0
(dp142
tp143
a(F0.0
F-5.0
(dp144
tp145
a(F1.0
F-6.0
(dp146
tp147
a(F3.0
F-6.0
(dp148
tp149
a(F4.0
F-5.0
(dp150
tp151
a(F4.0
F-4.0
(dp152
tp153
a(F0.0
F-2.0
(dp154
tp155
aasbsVf
p156
(iglyphs
Glyph
p157
(dp158
S'name'
p159
Vf
p160
sS'width'
p161
I3
sS'paths'
p162
(lp163
(lp164
a(lp165
(F1.0
F0.0
(dp166
tp167
a(F1.0
F-8.0
(dp168
tp169
a(F2.0
F-9.0
(dp170
tp171
a(F3.0
F-9.0
(dp172
tp173
aa(lp174
(F3.0
F-6.0
(dp175
tp176
a(F0.0
F-6.0
(dp177
tp178
aasbsVg
p179
(iglyphs
Glyph
p180
(dp181
S'name'
p182
Vg
p183
sS'width'
p184
I5
sS'paths'
p185
(lp186
(lp187
a(lp188
(F4.0
F-1.0
(dp189
tp190
a(F3.0
F0.0
(dp191
tp192
a(F1.0
F0.0
(dp193
tp194
a(F0.0
F-1.0
(dp195
tp196
a(F0.0
F-5.0
(dp197
tp198
a(F1.0
F-6.0
(dp199
tp200
a(F3.0
F-6.0
(dp201
tp202
a(F4.0
F-5.0
(dp203
tp204
a(F4.0
F2.0
(dp205
tp206
a(F3.0
F3.0
(dp207
tp208
a(F1.0
F3.0
(dp209
tp210
a(F0.0
F2.0
(dp211
tp212
aasbsVh
p213
(iglyphs
Glyph
p214
(dp215
S'name'
p216
Vh
p217
sS'width'
p218
I5
sS'paths'
p219
(lp220
(lp221
(F0.0
F-9.0
(dp222
tp223
a(F0.0
F0.0
(dp224
tp225
aa(lp226
(F0.0
F-5.0
(dp227
tp228
a(F1.0
F-6.0
(dp229
tp230
a(F3.0
F-6.0
(dp231
tp232
a(F4.0
F-5.0
(dp233
tp234
a(F4.0
F0.0
(dp235
tp236
aasbsVi
p237
(iglyphs
Glyph
p238
(dp239
S'name'
p240
Vi
p241
sS'width'
p242
I3
sS'paths'
p243
(lp244
(lp245
(F0.0
F-6.0
(dp246
tp247
a(F1.0
F-6.0
(dp248
tp249
a(F1.0
F0.0
(dp250
tp251
a(F2.0
F0.0
(dp252
tp253
aa(lp254
(F1.0
F-9.0
(dp255
tp256
a(F1.0
F-8.0
(dp257
tp258
aasbsVj
p259
(iglyphs
Glyph
p260
(dp261
S'name'
p262
Vj
p263
sS'width'
p264
I2
sS'paths'
p265
(lp266
(lp267
(F1.0
F-9.0
(dp268
tp269
a(F1.0
F-8.0
(dp270
tp271
aa(lp272
(F0.0
F-6.0
(dp273
tp274
a(F1.0
F-6.0
(dp275
tp276
a(F1.0
F2.0
(dp277
tp278
a(F0.0
F3.0
(dp279
tp280
aasbsVk
p281
(iglyphs
Glyph
p282
(dp283
S'name'
p284
Vk
p285
sS'width'
p286
I5
sS'paths'
p287
(lp288
(lp289
(F0.0
F-9.0
(dp290
tp291
a(F0.0
F0.0
(dp292
tp293
aa(lp294
(F4.0
F-6.0
(dp295
tp296
a(F1.0
F-3.0
(dp297
tp298
a(F4.0
F0.0
(dp299
tp300
aa(lp301
(F1.0
F-3.0
(dp302
tp303
a(F0.0
F-3.0
(dp304
tp305
aasbsVl
p306
(iglyphs
Glyph
p307
(dp308
S'name'
p309
Vl
p310
sS'width'
p311
I2
sS'paths'
p312
(lp313
(lp314
(F0.0
F-9.0
(dp315
tp316
a(F0.0
F-1.0
(dp317
tp318
a(F1.0
F0.0
(dp319
tp320
a(F2.0
F0.0
(dp321
tp322
aasbsVm
p323
(iglyphs
Glyph
p324
(dp325
S'name'
p326
Vm
p327
sS'width'
p328
I7
sS'paths'
p329
(lp330
(lp331
(F0.0
F-6.0
(dp332
tp333
a(F0.0
F0.0
(dp334
tp335
aa(lp336
(F0.0
F-5.0
(dp337
tp338
a(F1.0
F-6.0
(dp339
tp340
a(F2.0
F-6.0
(dp341
tp342
a(F3.0
F-5.0
(dp343
tp344
a(F3.0
F0.0
(dp345
tp346
a(F3.0
F-5.0
(dp347
tp348
a(F4.0
F-6.0
(dp349
tp350
a(F5.0
F-6.0
(dp351
tp352
a(F6.0
F-5.0
(dp353
tp354
a(F6.0
F0.0
(dp355
tp356
aa(lp357
asbsVn
p358
(iglyphs
Glyph
p359
(dp360
S'name'
p361
Vn
p362
sS'width'
p363
I5
sS'paths'
p364
(lp365
(lp366
(F0.0
F-6.0
(dp367
tp368
a(F0.0
F0.0
(dp369
tp370
aa(lp371
(F0.0
F-5.0
(dp372
tp373
a(F1.0
F-6.0
(dp374
tp375
a(F3.0
F-6.0
(dp376
tp377
a(F4.0
F-5.0
(dp378
tp379
a(F4.0
F0.0
(dp380
tp381
aasbsVo
p382
(iglyphs
Glyph
p383
(dp384
S'name'
p385
Vo
p386
sS'width'
p387
I5
sS'paths'
p388
(lp389
(lp390
(F0.0
F-5.0
(dp391
tp392
a(F1.0
F-6.0
(dp393
tp394
a(F3.0
F-6.0
(dp395
tp396
a(F4.0
F-5.0
(dp397
tp398
a(F4.0
F-1.0
(dp399
tp400
a(F3.0
F0.0
(dp401
tp402
a(F1.0
F0.0
(dp403
tp404
a(F0.0
F-1.0
(dp405
tp406
a(F0.0
F-5.0
(dp407
tp408
aasbsVp
p409
(iglyphs
Glyph
p410
(dp411
S'name'
p412
Vp
p413
sS'width'
p414
I5
sS'paths'
p415
(lp416
(lp417
(F0.0
F3.0
(dp418
tp419
a(F0.0
F-6.0
(dp420
tp421
aa(lp422
(F0.0
F-5.0
(dp423
tp424
a(F1.0
F-6.0
(dp425
tp426
a(F3.0
F-6.0
(dp427
tp428
a(F4.0
F-5.0
(dp429
tp430
a(F4.0
F-1.0
(dp431
tp432
a(F3.0
F0.0
(dp433
tp434
a(F1.0
F0.0
(dp435
tp436
a(F0.0
F-1.0
(dp437
tp438
aasbsVq
p439
(iglyphs
Glyph
p440
(dp441
S'name'
p442
Vq
p443
sS'width'
p444
I5
sS'paths'
p445
(lp446
(lp447
(F0.0
F-5.0
(dp448
tp449
a(F1.0
F-6.0
(dp450
tp451
a(F3.0
F-6.0
(dp452
tp453
a(F4.0
F-5.0
(dp454
tp455
a(F4.0
F-1.0
(dp456
tp457
a(F4.0
F3.0
(dp458
tp459
aa(lp460
(F4.0
F-1.0
(dp461
tp462
a(F3.0
F0.0
(dp463
tp464
a(F1.0
F0.0
(dp465
tp466
a(F0.0
F-1.0
(dp467
tp468
a(F0.0
F-5.0
(dp469
tp470
aasbsVr
p471
(iglyphs
Glyph
p472
(dp473
S'name'
p474
Vr
p475
sS'width'
p476
I5
sS'paths'
p477
(lp478
(lp479
(F0.0
F-6.0
(dp480
tp481
a(F0.0
F0.0
(dp482
tp483
aa(lp484
(F0.0
F-5.0
(dp485
tp486
a(F1.0
F-6.0
(dp487
tp488
a(F3.0
F-6.0
(dp489
tp490
a(F4.0
F-5.0
(dp491
tp492
aasbsVs
p493
(iglyphs
Glyph
p494
(dp495
S'name'
p496
Vs
p497
sS'width'
p498
I4
sS'paths'
p499
(lp500
(lp501
(F4.0
F-5.0
(dp502
tp503
a(F3.0
F-6.0
(dp504
tp505
a(F1.0
F-6.0
(dp506
tp507
a(F0.0
F-5.0
(dp508
tp509
a(F0.0
F-4.0
(dp510
tp511
a(F1.0
F-3.0
(dp512
tp513
a(F3.0
F-3.0
(dp514
tp515
a(F4.0
F-2.0
(dp516
tp517
a(F4.0
F-1.0
(dp518
tp519
a(F3.0
F0.0
(dp520
tp521
a(F1.0
F0.0
(dp522
tp523
a(F0.0
F-1.0
(dp524
tp525
aasbsVt
p526
(iglyphs
Glyph
p527
(dp528
S'name'
p529
Vt
p530
sS'width'
p531
I4
sS'paths'
p532
(lp533
(lp534
(F1.0
F-9.0
(dp535
tp536
a(F1.0
F-1.0
(dp537
tp538
a(F2.0
F0.0
(dp539
tp540
a(F3.0
F0.0
(dp541
tp542
a(F3.0
F0.0
(dp543
tp544
aa(lp545
(F0.0
F-6.0
(dp546
tp547
a(F3.0
F-6.0
(dp548
tp549
aasbsVu
p550
(iglyphs
Glyph
p551
(dp552
S'name'
p553
Vu
p554
sS'width'
p555
I5
sS'paths'
p556
(lp557
(lp558
(F0.0
F-6.0
(dp559
tp560
a(F0.0
F-1.0
(dp561
tp562
a(F1.0
F0.0
(dp563
tp564
a(F3.0
F0.0
(dp565
tp566
a(F4.0
F-1.0
(dp567
tp568
a(F4.0
F-6.0
(dp569
tp570
aa(lp571
(F4.0
F-1.0
(dp572
tp573
a(F4.0
F0.0
(dp574
tp575
aasbsVv
p576
(iglyphs
Glyph
p577
(dp578
S'name'
p579
Vv
p580
sS'width'
p581
I5
sS'paths'
p582
(lp583
(lp584
(F0.0
F-6.0
(dp585
tp586
a(F2.0
F0.0
(dp587
tp588
a(F4.0
F-6.0
(dp589
tp590
aasbsVw
p591
(iglyphs
Glyph
p592
(dp593
S'name'
p594
Vw
p595
sS'width'
p596
I7
sS'paths'
p597
(lp598
(lp599
(F0.0
F-6.0
(dp600
tp601
a(F2.0
F0.0
(dp602
tp603
a(F4.0
F-6.0
(dp604
tp605
aa(lp606
(F2.0
F-6.0
(dp607
tp608
a(F4.0
F0.0
(dp609
tp610
a(F6.0
F-6.0
(dp611
tp612
aasbsVx
p613
(iglyphs
Glyph
p614
(dp615
S'name'
p616
Vx
p617
sS'width'
p618
I5
sS'paths'
p619
(lp620
(lp621
(F0.0
F-6.0
(dp622
tp623
a(F4.0
F0.0
(dp624
tp625
aa(lp626
(F4.0
F-6.0
(dp627
tp628
a(F0.0
F0.0
(dp629
tp630
aasbsVy
p631
(iglyphs
Glyph
p632
(dp633
S'name'
p634
Vy
p635
sS'width'
p636
I5
sS'paths'
p637
(lp638
(lp639
(F0.0
F-6.0
(dp640
tp641
a(F2.0
F0.0
(dp642
tp643
aa(lp644
(F4.0
F-6.0
(dp645
tp646
a(F1.0
F3.0
(dp647
tp648
aasbsVz
p649
(iglyphs
Glyph
p650
(dp651
S'name'
p652
Vz
p653
sS'width'
p654
I5
sS'paths'
p655
(lp656
(lp657
(F0.0
F-6.0
(dp658
tp659
a(F4.0
F-6.0
(dp660
tp661
a(F0.0
F0.0
(dp662
tp663
a(F4.0
F0.0
(dp664
tp665
aasbs.