(lp0
(F-126.20304870605469
F-21.372636795043945
F0.0
tp1
a(F-72.70600128173828
F101.68006896972656
F0.0
tp2
a(F-124.5682373046875
F-10.380499839782715
F0.0
tp3
a(F-47.09038543701172
F-115.79074096679688
F0.0
tp4
a(F-123.32518005371094
F-20.393659591674805
F0.0
tp5
a(F-58.73152542114258
F-110.3431396484375
F0.0
tp6
a(F52.444618225097656
F-113.46612548828125
F0.0
tp7
a(F123.64712524414062
F-18.340927124023438
F0.0
tp8
a(F48.89495849609375
F115.04035186767578
F0.0
tp9
a(F124.55250549316406
F10.567623138427734
F0.0
tp10
a(F71.72128295898438
F102.37703704833984
F0.0
tp11
a(F116.90410614013672
F-44.254150390625
F0.0
tp12
a(F90.7618179321289
F85.9493637084961
F0.0
tp13
a(F-0.48421749472618103
F124.99906158447266
F0.0
tp14
a(F-105.5976333618164
F66.88900756835938
F0.0
tp15
a(F-118.64128112792969
F-39.36048126220703
F0.0
tp16
a(F-99.86852264404297
F75.17498779296875
F0.0
tp17
a(F37.9403076171875
F119.10303497314453
F0.0
tp18
a(F123.99004364013672
F15.857772827148438
F0.0
tp19
a(F62.67897033691406
F-108.14965057373047
F0.0
tp20
a(F124.6284408569336
F9.630789756774902
F0.0
tp21
a(F31.13082504272461
F121.06143951416016
F0.0
tp22
a(F-79.85203552246094
F96.16991424560547
F0.0
tp23
a(F-120.32909393310547
F-33.851280212402344
F0.0
tp24
a(F-43.724037170410156
F-117.1034164428711
F0.0
tp25
a(F52.476646423339844
F-113.4513168334961
F0.0
tp26
a(F-69.71710968017578
F-103.75222778320312
F0.0
tp27
a(F68.19322204589844
F-104.76012420654297
F0.0
tp28
a(F-40.12385940551758
F-118.38528442382812
F0.0
tp29
a(F-122.19483184814453
F-26.332910537719727
F0.0
tp30
a(F-53.18003463745117
F-113.1233139038086
F0.0
tp31
a(F-124.99724578857422
F-0.8305955529212952
F0.0
tp32
a(F-79.8297119140625
F-96.18844604492188
F0.0
tp33
a.