(dp0
S'a'
p1
(iglyphs
Glyph
p2
(dp3
S'name'
p4
S'a'
p5
sS'width'
p6
I6
sS'paths'
p7
(lp8
(lp9
a(lp10
(F1.0
F-2.0
(dp11
tp12
a(F1.0
F-1.0
(dp13
tp14
a(F2.0
F0.0
(dp15
tp16
a(F4.0
F0.0
(dp17
tp18
a(F5.0
F-1.0
(dp19
tp20
a(F5.0
F-5.0
(dp21
tp22
a(F4.0
F-6.0
(dp23
tp24
a(F2.0
F-6.0
(dp25
tp26
a(F1.0
F-5.0
(dp27
tp28
aa(lp29
(F1.0
F-2.0
(dp30
tp31
a(F5.0
F-4.0
(dp32
tp33
aa(lp34
(F5.0
F-1.0
(dp35
tp36
a(F5.0
F0.0
(dp37
tp38
aasbsVb
p39
(iglyphs
Glyph
p40
(dp41
S'current_path'
p42
NsS'name'
p43
Vb
p44
sS'width'
p45
I6
sS'paths'
p46
(lp47
(lp48
(F1.0
F-9.0
(dp49
tp50
a(F1.0
F0.0
(dp51
tp52
aa(lp53
(F1.0
F-1.0
(dp54
tp55
a(F2.0
F0.0
(dp56
tp57
a(F4.0
F0.0
(dp58
tp59
a(F5.0
F-1.0
(dp60
tp61
a(F5.0
F-5.0
(dp62
tp63
a(F4.0
F-6.0
(dp64
tp65
a(F2.0
F-6.0
(dp66
tp67
a(F1.0
F-5.0
(dp68
tp69
aasbsVc
p70
(iglyphs
Glyph
p71
(dp72
S'current_path'
p73
I-1
sS'name'
p74
Vc
p75
sS'width'
p76
I6
sS'paths'
p77
(lp78
(lp79
(F5.0
F-5.0
(dp80
tp81
a(F4.0
F-6.0
(dp82
tp83
a(F2.0
F-6.0
(dp84
tp85
a(F1.0
F-5.0
(dp86
tp87
a(F1.0
F-1.0
(dp88
tp89
a(F2.0
F0.0
(dp90
tp91
a(F4.0
F0.0
(dp92
tp93
a(F5.0
F-1.0
(dp94
tp95
aasbsVd
p96
(iglyphs
Glyph
p97
(dp98
S'current_path'
p99
NsS'name'
p100
Vd
p101
sS'width'
p102
I6
sS'paths'
p103
(lp104
(lp105
(F5.0
F-9.0
(dp106
tp107
a(F5.0
F0.0
(dp108
tp109
aa(lp110
(F5.0
F-1.0
(dp111
tp112
a(F4.0
F0.0
(dp113
tp114
a(F2.0
F0.0
(dp115
tp116
a(F1.0
F-1.0
(dp117
tp118
a(F1.0
F-5.0
(dp119
tp120
a(F2.0
F-6.0
(dp121
tp122
a(F4.0
F-6.0
(dp123
tp124
a(F5.0
F-5.0
(dp125
tp126
aasbsVe
p127
(iglyphs
Glyph
p128
(dp129
S'name'
p130
Ve
p131
sS'width'
p132
I6
sS'paths'
p133
(lp134
(lp135
(F5.0
F-1.0
(dp136
tp137
a(F4.0
F0.0
(dp138
tp139
a(F2.0
F0.0
(dp140
tp141
a(F1.0
F-1.0
(dp142
tp143
a(F1.0
F-5.0
(dp144
tp145
a(F2.0
F-6.0
(dp146
tp147
a(F4.0
F-6.0
(dp148
tp149
a(F5.0
F-5.0
(dp150
tp151
a(F5.0
F-4.0
(dp152
tp153
a(F1.0
F-2.0
(dp154
tp155
aasbsVf
p156
(iglyphs
Glyph
p157
(dp158
S'name'
p159
Vf
p160
sS'width'
p161
I3
sS'paths'
p162
(lp163
(lp164
a(lp165
(F1.0
F0.0
(dp166
tp167
a(F1.0
F-8.0
(dp168
tp169
a(F2.0
F-9.0
(dp170
tp171
a(F3.0
F-9.0
(dp172
tp173
aa(lp174
(F3.0
F-6.0
(dp175
tp176
a(F0.0
F-6.0
(dp177
tp178
aasbsVg
p179
(iglyphs
Glyph
p180
(dp181
S'name'
p182
Vg
p183
sS'width'
p184
I6
sS'paths'
p185
(lp186
(lp187
a(lp188
(F5.0
F-1.0
(dp189
tp190
a(F4.0
F0.0
(dp191
tp192
a(F2.0
F0.0
(dp193
tp194
a(F1.0
F-1.0
(dp195
tp196
a(F1.0
F-5.0
(dp197
tp198
a(F2.0
F-6.0
(dp199
tp200
a(F4.0
F-6.0
(dp201
tp202
a(F5.0
F-5.0
(dp203
tp204
a(F5.0
F2.0
(dp205
tp206
a(F4.0
F3.0
(dp207
tp208
a(F2.0
F3.0
(dp209
tp210
a(F1.0
F2.0
(dp211
tp212
aasbsVh
p213
(iglyphs
Glyph
p214
(dp215
S'name'
p216
Vh
p217
sS'width'
p218
I6
sS'paths'
p219
(lp220
(lp221
(F1.0
F-9.0
(dp222
tp223
a(F1.0
F0.0
(dp224
tp225
aa(lp226
(F1.0
F-5.0
(dp227
tp228
a(F2.0
F-6.0
(dp229
tp230
a(F4.0
F-6.0
(dp231
tp232
a(F5.0
F-5.0
(dp233
tp234
a(F5.0
F0.0
(dp235
tp236
aasbsVi
p237
(iglyphs
Glyph
p238
(dp239
S'name'
p240
Vi
p241
sS'width'
p242
I2
sS'paths'
p243
(lp244
(lp245
a(lp246
(F1.0
F-6.0
(dp247
tp248
a(F1.0
F0.0
(dp249
tp250
aa(lp251
(F1.0
F-9.0
(dp252
tp253
a(F1.0
F-8.0
(dp254
tp255
aasbsVj
p256
(iglyphs
Glyph
p257
(dp258
S'name'
p259
Vj
p260
sS'width'
p261
I2
sS'paths'
p262
(lp263
(lp264
a(lp265
(F1.0
F-9.0
(dp266
tp267
a(F1.0
F-8.0
(dp268
tp269
aa(lp270
(F1.0
F-6.0
(dp271
tp272
a(F1.0
F2.0
(dp273
tp274
a(F0.0
F3.0
(dp275
tp276
aasbsVk
p277
(iglyphs
Glyph
p278
(dp279
S'name'
p280
Vk
p281
sS'width'
p282
I6
sS'paths'
p283
(lp284
(lp285
(F1.0
F-9.0
(dp286
tp287
a(F1.0
F0.0
(dp288
tp289
aa(lp290
(F5.0
F-6.0
(dp291
tp292
a(F3.0
F-3.0
(dp293
tp294
a(F5.0
F0.0
(dp295
tp296
aa(lp297
(F3.0
F-3.0
(dp298
tp299
a(F1.0
F-3.0
(dp300
tp301
aasbsVl
p302
(iglyphs
Glyph
p303
(dp304
S'name'
p305
Vl
p306
sS'width'
p307
I2
sS'paths'
p308
(lp309
(lp310
a(lp311
(F1.0
F-9.0
(dp312
tp313
a(F1.0
F-1.0
(dp314
tp315
a(F2.0
F0.0
(dp316
tp317
aasbsVm
p318
(iglyphs
Glyph
p319
(dp320
S'name'
p321
Vm
p322
sS'width'
p323
I8
sS'paths'
p324
(lp325
(lp326
(F1.0
F-6.0
(dp327
tp328
a(F1.0
F0.0
(dp329
tp330
aa(lp331
(F1.0
F-5.0
(dp332
tp333
a(F2.0
F-6.0
(dp334
tp335
a(F3.0
F-6.0
(dp336
tp337
a(F4.0
F-5.0
(dp338
tp339
a(F4.0
F0.0
(dp340
tp341
a(F4.0
F-5.0
(dp342
tp343
a(F5.0
F-6.0
(dp344
tp345
a(F6.0
F-6.0
(dp346
tp347
a(F7.0
F-5.0
(dp348
tp349
a(F7.0
F0.0
(dp350
tp351
aa(lp352
asbsVn
p353
(iglyphs
Glyph
p354
(dp355
S'name'
p356
Vn
p357
sS'width'
p358
I6
sS'paths'
p359
(lp360
(lp361
(F1.0
F-6.0
(dp362
tp363
a(F1.0
F0.0
(dp364
tp365
aa(lp366
(F1.0
F-5.0
(dp367
tp368
a(F2.0
F-6.0
(dp369
tp370
a(F4.0
F-6.0
(dp371
tp372
a(F5.0
F-5.0
(dp373
tp374
a(F5.0
F0.0
(dp375
tp376
aasbsVo
p377
(iglyphs
Glyph
p378
(dp379
S'name'
p380
Vo
p381
sS'width'
p382
I6
sS'paths'
p383
(lp384
(lp385
(F1.0
F-5.0
(dp386
tp387
a(F2.0
F-6.0
(dp388
tp389
a(F4.0
F-6.0
(dp390
tp391
a(F5.0
F-5.0
(dp392
tp393
a(F5.0
F-1.0
(dp394
tp395
a(F4.0
F0.0
(dp396
tp397
a(F2.0
F0.0
(dp398
tp399
a(F1.0
F-1.0
(dp400
tp401
a(F1.0
F-5.0
(dp402
tp403
aasbsVp
p404
(iglyphs
Glyph
p405
(dp406
S'name'
p407
Vp
p408
sS'width'
p409
I6
sS'paths'
p410
(lp411
(lp412
(F1.0
F3.0
(dp413
tp414
a(F1.0
F-6.0
(dp415
tp416
aa(lp417
(F1.0
F-5.0
(dp418
tp419
a(F2.0
F-6.0
(dp420
tp421
a(F4.0
F-6.0
(dp422
tp423
a(F5.0
F-5.0
(dp424
tp425
a(F5.0
F-1.0
(dp426
tp427
a(F4.0
F0.0
(dp428
tp429
a(F2.0
F0.0
(dp430
tp431
a(F1.0
F-1.0
(dp432
tp433
aasbsVq
p434
(iglyphs
Glyph
p435
(dp436
S'name'
p437
Vq
p438
sS'width'
p439
I6
sS'paths'
p440
(lp441
(lp442
(F1.0
F-5.0
(dp443
tp444
a(F2.0
F-6.0
(dp445
tp446
a(F4.0
F-6.0
(dp447
tp448
a(F5.0
F-5.0
(dp449
tp450
a(F5.0
F-1.0
(dp451
tp452
a(F5.0
F3.0
(dp453
tp454
aa(lp455
(F5.0
F-1.0
(dp456
tp457
a(F4.0
F0.0
(dp458
tp459
a(F2.0
F0.0
(dp460
tp461
a(F1.0
F-1.0
(dp462
tp463
a(F1.0
F-5.0
(dp464
tp465
aasbsVr
p466
(iglyphs
Glyph
p467
(dp468
S'name'
p469
Vr
p470
sS'width'
p471
I4
sS'paths'
p472
(lp473
(lp474
a(lp475
(F1.0
F-6.0
(dp476
tp477
a(F1.0
F0.0
(dp478
tp479
aa(lp480
(F1.0
F-5.0
(dp481
tp482
a(F2.0
F-6.0
(dp483
tp484
a(F4.0
F-6.0
(dp485
tp486
aasbsVs
p487
(iglyphs
Glyph
p488
(dp489
S'name'
p490
Vs
p491
sS'width'
p492
I6
sS'paths'
p493
(lp494
(lp495
(F5.0
F-5.0
(dp496
tp497
a(F4.0
F-6.0
(dp498
tp499
a(F2.0
F-6.0
(dp500
tp501
a(F1.0
F-5.0
(dp502
tp503
a(F1.0
F-4.0
(dp504
tp505
a(F2.0
F-3.0
(dp506
tp507
a(F4.0
F-3.0
(dp508
tp509
a(F5.0
F-2.0
(dp510
tp511
a(F5.0
F-1.0
(dp512
tp513
a(F4.0
F0.0
(dp514
tp515
a(F2.0
F0.0
(dp516
tp517
a(F1.0
F-1.0
(dp518
tp519
aasbsVt
p520
(iglyphs
Glyph
p521
(dp522
S'name'
p523
Vt
p524
sS'width'
p525
I3
sS'paths'
p526
(lp527
(lp528
(F1.0
F-9.0
(dp529
tp530
a(F1.0
F-1.0
(dp531
tp532
a(F2.0
F0.0
(dp533
tp534
a(F3.0
F0.0
(dp535
tp536
a(F3.0
F0.0
(dp537
tp538
aa(lp539
(F0.0
F-6.0
(dp540
tp541
a(F3.0
F-6.0
(dp542
tp543
aasbsVu
p544
(iglyphs
Glyph
p545
(dp546
S'name'
p547
Vu
p548
sS'width'
p549
I6
sS'paths'
p550
(lp551
(lp552
(F1.0
F-6.0
(dp553
tp554
a(F1.0
F-1.0
(dp555
tp556
a(F2.0
F0.0
(dp557
tp558
a(F4.0
F0.0
(dp559
tp560
a(F5.0
F-1.0
(dp561
tp562
a(F5.0
F-6.0
(dp563
tp564
aa(lp565
(F5.0
F-1.0
(dp566
tp567
a(F5.0
F0.0
(dp568
tp569
aasbsVv
p570
(iglyphs
Glyph
p571
(dp572
S'name'
p573
Vv
p574
sS'width'
p575
I4
sS'paths'
p576
(lp577
(lp578
(F0.0
F-6.0
(dp579
tp580
a(F2.0
F0.0
(dp581
tp582
a(F4.0
F-6.0
(dp583
tp584
aasbsVw
p585
(iglyphs
Glyph
p586
(dp587
S'name'
p588
Vw
p589
sS'width'
p590
I8
sS'paths'
p591
(lp592
(lp593
(F1.0
F-6.0
(dp594
tp595
a(F3.0
F0.0
(dp596
tp597
a(F5.0
F-6.0
(dp598
tp599
aa(lp600
(F3.0
F-6.0
(dp601
tp602
a(F5.0
F0.0
(dp603
tp604
a(F7.0
F-6.0
(dp605
tp606
aasbsVx
p607
(iglyphs
Glyph
p608
(dp609
S'name'
p610
Vx
p611
sS'width'
p612
I4
sS'paths'
p613
(lp614
(lp615
(F0.0
F-6.0
(dp616
tp617
a(F4.0
F0.0
(dp618
tp619
aa(lp620
(F4.0
F-6.0
(dp621
tp622
a(F0.0
F0.0
(dp623
tp624
aasbsVy
p625
(iglyphs
Glyph
p626
(dp627
S'name'
p628
Vy
p629
sS'width'
p630
I4
sS'paths'
p631
(lp632
(lp633
(F0.0
F-6.0
(dp634
tp635
a(F2.0
F0.0
(dp636
tp637
aa(lp638
(F4.0
F-6.0
(dp639
tp640
a(F1.0
F3.0
(dp641
tp642
aasbsVz
p643
(iglyphs
Glyph
p644
(dp645
S'name'
p646
Vz
p647
sS'width'
p648
I6
sS'paths'
p649
(lp650
(lp651
(F1.0
F-6.0
(dp652
tp653
a(F5.0
F-6.0
(dp654
tp655
a(F1.0
F0.0
(dp656
tp657
a(F5.0
F0.0
(dp658
tp659
aasbs.