(dp0
S'a'
p1
(iglyphs
Glyph
p2
(dp3
S'name'
p4
S'a'
p5
sS'width'
p6
I6
sS'paths'
p7
(lp8
(lp9
a(lp10
(F1.0
F-2.0
(dp11
tp12
a(F1.0
F-1.0
(dp13
tp14
a(F2.0
F0.0
(dp15
tp16
a(F4.0
F0.0
(dp17
tp18
a(F5.0
F-1.0
(dp19
tp20
a(F5.0
F-5.0
(dp21
tp22
a(F4.0
F-6.0
(dp23
tp24
a(F2.0
F-6.0
(dp25
tp26
a(F1.0
F-5.0
(dp27
tp28
aa(lp29
(F1.0
F-2.0
(dp30
tp31
a(F5.0
F-4.0
(dp32
tp33
aa(lp34
(F5.0
F-1.0
(dp35
tp36
a(F5.0
F0.0
(dp37
tp38
aasbsVb
p39
(iglyphs
Glyph
p40
(dp41
S'current_path'
p42
NsS'name'
p43
Vb
p44
sS'width'
p45
I6
sS'paths'
p46
(lp47
(lp48
(F1.0
F-9.0
(dp49
tp50
a(F1.0
F0.0
(dp51
tp52
aa(lp53
(F1.0
F-1.0
(dp54
tp55
a(F2.0
F0.0
(dp56
tp57
a(F4.0
F0.0
(dp58
tp59
a(F5.0
F-1.0
(dp60
tp61
a(F5.0
F-5.0
(dp62
tp63
a(F4.0
F-6.0
(dp64
tp65
a(F2.0
F-6.0
(dp66
tp67
a(F1.0
F-5.0
(dp68
tp69
aasbsVc
p70
(iglyphs
Glyph
p71
(dp72
S'current_path'
p73
I-1
sS'name'
p74
Vc
p75
sS'width'
p76
I6
sS'paths'
p77
(lp78
(lp79
(F5.0
F-5.0
(dp80
tp81
a(F4.0
F-6.0
(dp82
tp83
a(F2.0
F-6.0
(dp84
tp85
a(F1.0
F-5.0
(dp86
tp87
a(F1.0
F-1.0
(dp88
tp89
a(F2.0
F0.0
(dp90
tp91
a(F4.0
F0.0
(dp92
tp93
a(F5.0
F-1.0
(dp94
tp95
aasbsVd
p96
(iglyphs
Glyph
p97
(dp98
S'current_path'
p99
NsS'name'
p100
Vd
p101
sS'width'
p102
I6
sS'paths'
p103
(lp104
(lp105
(F5.0
F-9.0
(dp106
tp107
a(F5.0
F0.0
(dp108
tp109
aa(lp110
(F5.0
F-1.0
(dp111
tp112
a(F4.0
F0.0
(dp113
tp114
a(F2.0
F0.0
(dp115
tp116
a(F1.0
F-1.0
(dp117
tp118
a(F1.0
F-5.0
(dp119
tp120
a(F2.0
F-6.0
(dp121
tp122
a(F4.0
F-6.0
(dp123
tp124
a(F5.0
F-5.0
(dp125
tp126
aasbsVe
p127
(iglyphs
Glyph
p128
(dp129
S'name'
p130
Ve
p131
sS'width'
p132
I6
sS'paths'
p133
(lp134
(lp135
(F5.0
F-1.0
(dp136
tp137
a(F4.0
F0.0
(dp138
tp139
a(F2.0
F0.0
(dp140
tp141
a(F1.0
F-1.0
(dp142
tp143
a(F1.0
F-5.0
(dp144
tp145
a(F2.0
F-6.0
(dp146
tp147
a(F4.0
F-6.0
(dp148
tp149
a(F5.0
F-5.0
(dp150
tp151
a(F5.0
F-4.0
(dp152
tp153
a(F1.0
F-2.0
(dp154
tp155
aasbsVf
p156
(iglyphs
Glyph
p157
(dp158
S'name'
p159
Vf
p160
sS'width'
p161
I3
sS'paths'
p162
(lp163
(lp164
a(lp165
(F1.0
F0.0
(dp166
tp167
a(F1.0
F-8.0
(dp168
tp169
a(F2.0
F-9.0
(dp170
tp171
a(F3.0
F-9.0
(dp172
tp173
aa(lp174
(F3.0
F-6.0
(dp175
tp176
a(F0.0
F-6.0
(dp177
tp178
aasbsVg
p179
(iglyphs
Glyph
p180
(dp181
S'name'
p182
Vg
p183
sS'width'
p184
I6
sS'paths'
p185
(lp186
(lp187
a(lp188
(F5.0
F-1.0
(dp189
tp190
a(F4.0
F0.0
(dp191
tp192
a(F2.0
F0.0
(dp193
tp194
a(F1.0
F-1.0
(dp195
tp196
a(F1.0
F-5.0
(dp197
tp198
a(F2.0
F-6.0
(dp199
tp200
a(F4.0
F-6.0
(dp201
tp202
a(F5.0
F-5.0
(dp203
tp204
a(F5.0
F2.0
(dp205
tp206
a(F4.0
F3.0
(dp207
tp208
a(F2.0
F3.0
(dp209
tp210
a(F1.0
F2.0
(dp211
tp212
aasbsVh
p213
(iglyphs
Glyph
p214
(dp215
S'name'
p216
Vh
p217
sS'width'
p218
I6
sS'paths'
p219
(lp220
(lp221
(F1.0
F-9.0
(dp222
tp223
a(F1.0
F0.0
(dp224
tp225
aa(lp226
(F1.0
F-5.0
(dp227
tp228
a(F2.0
F-6.0
(dp229
tp230
a(F4.0
F-6.0
(dp231
tp232
a(F5.0
F-5.0
(dp233
tp234
a(F5.0
F0.0
(dp235
tp236
aasbsVi
p237
(iglyphs
Glyph
p238
(dp239
S'name'
p240
Vi
p241
sS'width'
p242
I2
sS'paths'
p243
(lp244
(lp245
a(lp246
(F0.0
F-6.0
(dp247
tp248
a(F1.0
F-6.0
(dp249
tp250
a(F1.0
F0.0
(dp251
tp252
aa(lp253
(F1.0
F-9.0
(dp254
tp255
a(F1.0
F-8.0
(dp256
tp257
aasbsVj
p258
(iglyphs
Glyph
p259
(dp260
S'name'
p261
Vj
p262
sS'width'
p263
I2
sS'paths'
p264
(lp265
(lp266
(F1.0
F-9.0
(dp267
tp268
a(F1.0
F-8.0
(dp269
tp270
aa(lp271
(F0.0
F-6.0
(dp272
tp273
a(F1.0
F-6.0
(dp274
tp275
a(F1.0
F2.0
(dp276
tp277
a(F0.0
F3.0
(dp278
tp279
aasbsVk
p280
(iglyphs
Glyph
p281
(dp282
S'name'
p283
Vk
p284
sS'width'
p285
I6
sS'paths'
p286
(lp287
(lp288
(F1.0
F-9.0
(dp289
tp290
a(F1.0
F0.0
(dp291
tp292
aa(lp293
(F5.0
F-6.0
(dp294
tp295
a(F3.0
F-3.0
(dp296
tp297
a(F5.0
F0.0
(dp298
tp299
aa(lp300
(F3.0
F-3.0
(dp301
tp302
a(F1.0
F-3.0
(dp303
tp304
aasbsVl
p305
(iglyphs
Glyph
p306
(dp307
S'name'
p308
Vl
p309
sS'width'
p310
I2
sS'paths'
p311
(lp312
(lp313
a(lp314
(F1.0
F-9.0
(dp315
tp316
a(F1.0
F-1.0
(dp317
tp318
a(F2.0
F0.0
(dp319
tp320
aasbsVm
p321
(iglyphs
Glyph
p322
(dp323
S'name'
p324
Vm
p325
sS'width'
p326
I8
sS'paths'
p327
(lp328
(lp329
(F1.0
F-6.0
(dp330
tp331
a(F1.0
F0.0
(dp332
tp333
aa(lp334
(F1.0
F-5.0
(dp335
tp336
a(F2.0
F-6.0
(dp337
tp338
a(F3.0
F-6.0
(dp339
tp340
a(F4.0
F-5.0
(dp341
tp342
a(F4.0
F0.0
(dp343
tp344
a(F4.0
F-5.0
(dp345
tp346
a(F5.0
F-6.0
(dp347
tp348
a(F6.0
F-6.0
(dp349
tp350
a(F7.0
F-5.0
(dp351
tp352
a(F7.0
F0.0
(dp353
tp354
aa(lp355
asbsVn
p356
(iglyphs
Glyph
p357
(dp358
S'name'
p359
Vn
p360
sS'width'
p361
I6
sS'paths'
p362
(lp363
(lp364
(F1.0
F-6.0
(dp365
tp366
a(F1.0
F0.0
(dp367
tp368
aa(lp369
(F1.0
F-5.0
(dp370
tp371
a(F2.0
F-6.0
(dp372
tp373
a(F4.0
F-6.0
(dp374
tp375
a(F5.0
F-5.0
(dp376
tp377
a(F5.0
F0.0
(dp378
tp379
aasbsVo
p380
(iglyphs
Glyph
p381
(dp382
S'name'
p383
Vo
p384
sS'width'
p385
I6
sS'paths'
p386
(lp387
(lp388
(F1.0
F-5.0
(dp389
tp390
a(F2.0
F-6.0
(dp391
tp392
a(F4.0
F-6.0
(dp393
tp394
a(F5.0
F-5.0
(dp395
tp396
a(F5.0
F-1.0
(dp397
tp398
a(F4.0
F0.0
(dp399
tp400
a(F2.0
F0.0
(dp401
tp402
a(F1.0
F-1.0
(dp403
tp404
a(F1.0
F-5.0
(dp405
tp406
aasbsVp
p407
(iglyphs
Glyph
p408
(dp409
S'name'
p410
Vp
p411
sS'width'
p412
I6
sS'paths'
p413
(lp414
(lp415
(F1.0
F3.0
(dp416
tp417
a(F1.0
F-6.0
(dp418
tp419
aa(lp420
(F1.0
F-5.0
(dp421
tp422
a(F2.0
F-6.0
(dp423
tp424
a(F4.0
F-6.0
(dp425
tp426
a(F5.0
F-5.0
(dp427
tp428
a(F5.0
F-1.0
(dp429
tp430
a(F4.0
F0.0
(dp431
tp432
a(F2.0
F0.0
(dp433
tp434
a(F1.0
F-1.0
(dp435
tp436
aasbsVq
p437
(iglyphs
Glyph
p438
(dp439
S'name'
p440
Vq
p441
sS'width'
p442
I6
sS'paths'
p443
(lp444
(lp445
(F1.0
F-5.0
(dp446
tp447
a(F2.0
F-6.0
(dp448
tp449
a(F4.0
F-6.0
(dp450
tp451
a(F5.0
F-5.0
(dp452
tp453
a(F5.0
F-1.0
(dp454
tp455
a(F5.0
F3.0
(dp456
tp457
aa(lp458
(F5.0
F-1.0
(dp459
tp460
a(F4.0
F0.0
(dp461
tp462
a(F2.0
F0.0
(dp463
tp464
a(F1.0
F-1.0
(dp465
tp466
a(F1.0
F-5.0
(dp467
tp468
aasbsVr
p469
(iglyphs
Glyph
p470
(dp471
S'name'
p472
Vr
p473
sS'width'
p474
I5
sS'paths'
p475
(lp476
(lp477
(F1.0
F-6.0
(dp478
tp479
a(F1.0
F0.0
(dp480
tp481
aa(lp482
(F1.0
F-5.0
(dp483
tp484
a(F2.0
F-6.0
(dp485
tp486
a(F4.0
F-6.0
(dp487
tp488
a(F4.0
F-5.0
(dp489
tp490
aasbsVs
p491
(iglyphs
Glyph
p492
(dp493
S'name'
p494
Vs
p495
sS'width'
p496
I6
sS'paths'
p497
(lp498
(lp499
(F5.0
F-5.0
(dp500
tp501
a(F4.0
F-6.0
(dp502
tp503
a(F2.0
F-6.0
(dp504
tp505
a(F1.0
F-5.0
(dp506
tp507
a(F1.0
F-4.0
(dp508
tp509
a(F2.0
F-3.0
(dp510
tp511
a(F4.0
F-3.0
(dp512
tp513
a(F5.0
F-2.0
(dp514
tp515
a(F5.0
F-1.0
(dp516
tp517
a(F4.0
F0.0
(dp518
tp519
a(F2.0
F0.0
(dp520
tp521
a(F1.0
F-1.0
(dp522
tp523
aasbsVt
p524
(iglyphs
Glyph
p525
(dp526
S'name'
p527
Vt
p528
sS'width'
p529
I4
sS'paths'
p530
(lp531
(lp532
(F1.0
F-9.0
(dp533
tp534
a(F1.0
F-1.0
(dp535
tp536
a(F2.0
F0.0
(dp537
tp538
a(F3.0
F0.0
(dp539
tp540
a(F3.0
F0.0
(dp541
tp542
aa(lp543
(F0.0
F-6.0
(dp544
tp545
a(F3.0
F-6.0
(dp546
tp547
aasbsVu
p548
(iglyphs
Glyph
p549
(dp550
S'name'
p551
Vu
p552
sS'width'
p553
I6
sS'paths'
p554
(lp555
(lp556
(F1.0
F-6.0
(dp557
tp558
a(F1.0
F-1.0
(dp559
tp560
a(F2.0
F0.0
(dp561
tp562
a(F4.0
F0.0
(dp563
tp564
a(F5.0
F-1.0
(dp565
tp566
a(F5.0
F-6.0
(dp567
tp568
aa(lp569
(F5.0
F-1.0
(dp570
tp571
a(F5.0
F0.0
(dp572
tp573
aasbsVv
p574
(iglyphs
Glyph
p575
(dp576
S'name'
p577
Vv
p578
sS'width'
p579
I4
sS'paths'
p580
(lp581
(lp582
(F0.0
F-6.0
(dp583
tp584
a(F2.0
F0.0
(dp585
tp586
a(F4.0
F-6.0
(dp587
tp588
aasbsVw
p589
(iglyphs
Glyph
p590
(dp591
S'name'
p592
Vw
p593
sS'width'
p594
I8
sS'paths'
p595
(lp596
(lp597
(F1.0
F-6.0
(dp598
tp599
a(F3.0
F0.0
(dp600
tp601
a(F5.0
F-6.0
(dp602
tp603
aa(lp604
(F3.0
F-6.0
(dp605
tp606
a(F5.0
F0.0
(dp607
tp608
a(F7.0
F-6.0
(dp609
tp610
aasbsVx
p611
(iglyphs
Glyph
p612
(dp613
S'name'
p614
Vx
p615
sS'width'
p616
I4
sS'paths'
p617
(lp618
(lp619
(F0.0
F-6.0
(dp620
tp621
a(F4.0
F0.0
(dp622
tp623
aa(lp624
(F4.0
F-6.0
(dp625
tp626
a(F0.0
F0.0
(dp627
tp628
aasbsVy
p629
(iglyphs
Glyph
p630
(dp631
S'name'
p632
Vy
p633
sS'width'
p634
I4
sS'paths'
p635
(lp636
(lp637
(F0.0
F-6.0
(dp638
tp639
a(F2.0
F0.0
(dp640
tp641
aa(lp642
(F4.0
F-6.0
(dp643
tp644
a(F1.0
F3.0
(dp645
tp646
aasbsVz
p647
(iglyphs
Glyph
p648
(dp649
S'name'
p650
Vz
p651
sS'width'
p652
I6
sS'paths'
p653
(lp654
(lp655
(F1.0
F-6.0
(dp656
tp657
a(F5.0
F-6.0
(dp658
tp659
a(F1.0
F0.0
(dp660
tp661
a(F5.0
F0.0
(dp662
tp663
aasbs.