(lp0
(ipoly
Poly
p1
(dp2
S'closed'
p3
I01
sS'lw'
p4
I1
sS'id'
p5
I0
sS'outer_pts'
p6
(lp7
(I-3
I-7
tp8
a(I-3
I-6
tp9
a(I-9
I-6
tp10
a(I-8
I-7
tp11
asS'holes'
p12
(lp13
(lp14
asba(ipoly
Poly
p15
(dp16
S'closed'
p17
I00
sS'lw'
p18
I5
sS'id'
p19
I1
sS'outer_pts'
p20
(lp21
(I6
I-3
tp22
a(I0
I-2
tp23
a(I0
I2
tp24
a(I6
I2
tp25
a(I6
I-7
tp26
a(I0
I-7
tp27
asS'holes'
p28
(lp29
(lp30
asba(ipoly
Poly
p31
(dp32
S'closed'
p33
I01
sS'lw'
p34
I1
sS'id'
p35
I0
sS'outer_pts'
p36
(lp37
(I-3
I-7
tp38
a(I-2
I-6
tp39
a(I-2
I-4
tp40
a(I-2
I2
tp41
a(I-3
I1
tp42
asS'holes'
p43
(lp44
(lp45
asba(ipoly
Poly
p46
(dp47
S'closed'
p48
I01
sS'lw'
p49
I1
sS'id'
p50
I0
sS'outer_pts'
p51
(lp52
(I-3
I-3
tp53
a(I-3
I-2
tp54
a(I-9
I-2
tp55
a(I-8
I-3
tp56
asS'holes'
p57
(lp58
(lp59
asba(ipoly
Poly
p60
(dp61
S'closed'
p62
I01
sS'lw'
p63
I1
sS'id'
p64
I0
sS'outer_pts'
p65
(lp66
(I-8
I2
tp67
a(I-9
I1
tp68
a(I-3
I1
tp69
a(I-4
I2
tp70
asS'holes'
p71
(lp72
(lp73
asba(ipoly
Poly
p74
(dp75
S'closed'
p76
I01
sS'lw'
p77
I1
sS'id'
p78
I0
sS'outer_pts'
p79
(lp80
(I-9
I1
tp81
a(I-9
I-2
tp82
a(I-8
I-2
tp83
a(I-8
I1
tp84
asS'holes'
p85
(lp86
(lp87
asba.