(ccopy_reg
_reconstructor
p0
(cgraph
Graph
p1
c__builtin__
object
p2
Ntp3
Rp4
(dp5
S'_Graph__graph_dict'
p6
(dp7
I0
(lp8
I43
aI58
aI98
asI1
(lp9
I51
asI2
(lp10
I17
asI3
(lp11
I56
aI85
asI4
(lp12
I84
asI5
(lp13
I43
aI67
aI86
asI6
(lp14
I34
aI12
asI7
(lp15
I76
aI9
aI16
aI31
aI59
aI74
asI8
(lp16
I99
aI44
aI57
asI9
(lp17
I7
aI40
asI10
(lp18
I95
asI11
(lp19
I80
aI41
asI12
(lp20
I6
aI39
asI13
(lp21
I48
aI29
aI63
asI14
(lp22
I24
aI61
asI15
(lp23
I48
asI16
(lp24
I7
aI81
aI93
asI17
(lp25
I2
aI26
aI50
asI18
(lp26
I96
asI19
(lp27
I25
asI20
(lp28
I92
asI21
(lp29
I96
asI22
(lp30
I30
aI46
asI23
(lp31
I30
aI24
aI42
asI24
(lp32
I14
aI23
asI25
(lp33
I19
aI54
aI64
aI89
asI26
(lp34
I17
aI63
asI27
(lp35
I45
asI28
(lp36
I82
aI77
asI29
(lp37
I13
asI30
(lp38
I23
aI22
aI75
asI31
(lp39
I7
aI54
asI32
(lp40
I82
aI62
asI33
(lp41
I84
asI34
(lp42
I6
aI47
asI35
(lp43
I73
aI55
asI36
(lp44
I77
aI49
asI37
(lp45
I59
asI38
(lp46
I70
asI39
(lp47
I12
asI40
(lp48
I9
asI41
(lp49
I11
asI42
(lp50
I23
asI43
(lp51
I0
aI5
aI96
asI44
(lp52
I8
asI45
(lp53
I27
aI46
aI87
asI46
(lp54
I45
aI22
asI47
(lp55
I34
aI81
aI52
asI48
(lp56
I13
aI15
aI73
asI49
(lp57
I36
asI50
(lp58
I17
asI51
(lp59
I1
aI56
aI90
asI52
(lp60
I47
aI92
asI53
(lp61
I60
asI54
(lp62
I25
aI31
aI69
asI55
(lp63
I35
asI56
(lp64
I3
aI51
aI87
aI97
asI57
(lp65
I8
aI66
asI58
(lp66
I0
asI59
(lp67
I37
aI7
asI60
(lp68
I53
aI85
aI73
aI78
asI61
(lp69
I14
aI83
aI94
asI62
(lp70
I32
aI68
aI84
asI63
(lp71
I26
aI13
asI64
(lp72
I25
aI91
asI65
(lp73
I68
asI66
(lp74
I57
asI67
(lp75
I5
aI70
asI68
(lp76
I65
aI62
aI76
asI69
(lp77
I54
asI70
(lp78
I38
aI67
asI71
(lp79
I77
asI72
(lp80
I98
asI73
(lp81
I35
aI48
aI60
asI74
(lp82
I7
aI79
asI75
(lp83
I30
asI76
(lp84
I7
aI68
asI77
(lp85
I36
aI71
aI28
asI78
(lp86
I60
aI99
asI79
(lp87
I74
asI80
(lp88
I11
aI98
asI81
(lp89
I47
aI16
asI82
(lp90
I28
aI32
aI88
asI83
(lp91
I61
aI96
asI84
(lp92
I4
aI33
aI62
asI85
(lp93
I60
aI3
asI86
(lp94
I5
aI95
asI87
(lp95
I56
aI45
asI88
(lp96
I82
aI90
asI89
(lp97
I25
asI90
(lp98
I88
aI51
asI91
(lp99
I64
asI92
(lp100
I20
aI52
asI93
(lp101
I16
asI94
(lp102
I61
asI95
(lp103
I10
aI86
asI96
(lp104
I18
aI21
aI43
aI83
asI97
(lp105
I56
asI98
(lp106
I72
aI80
aI0
asI99
(lp107
I8
aI78
assb(igrid
Grid
p108
(dp109
S'other_grid'
p110
(dp111
I0
(lp112
I7
aI6
aI3
asI1
(lp113
I4
aI6
aI1
asI2
(lp114
I2
aI0
aI1
asI3
(lp115
I2
aI7
aI2
asI4
(lp116
I4
aI9
aI1
asI5
(lp117
I5
aI7
aI3
asI6
(lp118
I0
aI2
aI2
asI7
(lp119
I5
aI2
aI6
asI8
(lp120
I5
aI4
aI3
asI9
(lp121
I5
aI1
aI2
asI10
(lp122
I5
aI9
aI1
asI11
(lp123
I7
aI0
aI2
asI12
(lp124
I0
aI3
aI2
asI13
(lp125
I8
aI1
aI3
asI14
(lp126
I2
aI3
aI2
asI15
(lp127
I4
aI7
aI1
asI16
(lp128
I4
aI3
aI3
asI17
(lp129
I4
aI0
aI3
asI18
(lp130
I6
aI9
aI1
asI19
(lp131
I9
aI9
aI1
asI20
(lp132
I0
aI0
aI1
asI21
(lp133
I8
aI9
aI1
asI22
(lp134
I1
aI4
aI2
asI23
(lp135
I3
aI3
aI3
asI24
(lp136
I3
aI4
aI2
asI25
(lp137
I9
aI8
aI4
asI26
(lp138
I7
aI2
aI2
asI27
(lp139
I7
aI3
aI1
asI28
(lp140
I0
aI9
aI2
asI29
(lp141
I8
aI0
aI1
asI30
(lp142
I2
aI4
aI3
asI31
(lp143
I6
aI2
aI2
asI32
(lp144
I8
aI7
aI2
asI33
(lp145
I7
aI9
aI1
asI34
(lp146
I1
aI2
aI2
asI35
(lp147
I2
aI2
aI2
asI36
(lp148
I1
aI7
aI2
asI37
(lp149
I6
aI0
aI1
asI38
(lp150
I3
aI9
aI1
asI39
(lp151
I0
aI1
aI1
asI40
(lp152
I5
aI0
aI1
asI41
(lp153
I7
aI1
aI1
asI42
(lp154
I2
aI5
aI1
asI43
(lp155
I6
aI6
aI3
asI44
(lp156
I6
aI4
aI1
asI45
(lp157
I8
aI3
aI3
asI46
(lp158
I6
aI3
aI2
asI47
(lp159
I3
aI1
aI3
asI48
(lp160
I5
aI5
aI3
asI49
(lp161
I2
aI6
aI1
asI50
(lp162
I3
aI0
aI1
asI51
(lp163
I4
aI5
aI3
asI52
(lp164
I1
aI1
aI2
asI53
(lp165
I0
aI4
aI1
asI54
(lp166
I9
aI5
aI3
asI55
(lp167
I2
aI1
aI1
asI56
(lp168
I4
aI4
aI4
asI57
(lp169
I9
aI2
aI2
asI58
(lp170
I9
aI6
aI1
asI59
(lp171
I6
aI1
aI2
asI60
(lp172
I0
aI5
aI4
asI61
(lp173
I3
aI5
aI3
asI62
(lp174
I7
aI7
aI3
asI63
(lp175
I8
aI2
aI2
asI64
(lp176
I9
aI7
aI2
asI65
(lp177
I8
aI5
aI1
asI66
(lp178
I9
aI1
aI1
asI67
(lp179
I4
aI8
aI2
asI68
(lp180
I7
aI5
aI3
asI69
(lp181
I9
aI4
aI1
asI70
(lp182
I2
aI9
aI2
asI71
(lp183
I0
aI7
aI1
asI72
(lp184
I9
aI3
aI1
asI73
(lp185
I1
aI3
aI3
asI74
(lp186
I4
aI2
aI2
asI75
(lp187
I1
aI5
aI1
asI76
(lp188
I6
aI5
aI2
asI77
(lp189
I1
aI9
aI3
asI78
(lp190
I0
aI6
aI2
asI79
(lp191
I4
aI1
aI1
asI80
(lp192
I9
aI0
aI2
asI81
(lp193
I5
aI3
aI2
asI82
(lp194
I1
aI8
aI3
asI83
(lp195
I5
aI6
aI2
asI84
(lp196
I7
aI8
aI3
asI85
(lp197
I0
aI8
aI2
asI86
(lp198
I6
aI7
aI2
asI87
(lp199
I7
aI4
aI2
asI88
(lp200
I2
aI8
aI2
asI89
(lp201
I8
aI8
aI1
asI90
(lp202
I3
aI8
aI2
asI91
(lp203
I8
aI6
aI1
asI92
(lp204
I1
aI0
aI2
asI93
(lp205
I3
aI2
aI1
asI94
(lp206
I3
aI7
aI1
asI95
(lp207
I5
aI8
aI2
asI96
(lp208
I6
aI8
aI4
asI97
(lp209
I3
aI6
aI1
asI98
(lp210
I8
aI4
aI3
asI99
(lp211
I1
aI6
aI2
assS'rows'
p212
I10
sS'cols'
p213
I10
sS'graph'
p214
g4
sS'grid'
p215
(dp216
I0
(lp217
I1
aI7
aI3
asI1
(lp218
I1
aI0
aI1
asI2
(lp219
I1
aI1
aI1
asI3
(lp220
I8
aI4
aI2
asI4
(lp221
I6
aI3
aI1
asI5
(lp222
I4
aI8
aI3
asI6
(lp223
I5
aI0
aI2
asI7
(lp224
I6
aI4
aI6
asI8
(lp225
I8
aI9
aI3
asI9
(lp226
I4
aI5
aI2
asI10
(lp227
I2
aI9
aI1
asI11
(lp228
I0
aI3
aI2
asI12
(lp229
I4
aI0
aI2
asI13
(lp230
I5
aI6
aI3
asI14
(lp231
I3
aI7
aI2
asI15
(lp232
I7
aI7
aI1
asI16
(lp233
I7
aI6
aI3
asI17
(lp234
I0
aI1
aI3
asI18
(lp235
I0
aI4
aI1
asI19
(lp236
I9
aI0
aI1
asI20
(lp237
I8
aI1
aI1
asI21
(lp238
I1
aI3
aI1
asI22
(lp239
I3
aI3
aI2
asI23
(lp240
I3
aI5
aI3
asI24
(lp241
I4
aI7
aI2
asI25
(lp242
I9
aI1
aI4
asI26
(lp243
I1
aI2
aI2
asI27
(lp244
I3
aI1
aI1
asI28
(lp245
I1
aI5
aI2
asI29
(lp246
I5
aI7
aI1
asI30
(lp247
I3
aI4
aI3
asI31
(lp248
I7
aI4
aI2
asI32
(lp249
I4
aI4
aI2
asI33
(lp250
I6
aI1
aI1
asI34
(lp251
I6
aI0
aI2
asI35
(lp252
I6
aI8
aI2
asI36
(lp253
I0
aI9
aI2
asI37
(lp254
I7
aI0
aI1
asI38
(lp255
I9
aI6
aI1
asI39
(lp256
I3
aI0
aI1
asI40
(lp257
I4
aI6
aI1
asI41
(lp258
I0
aI2
aI1
asI42
(lp259
I3
aI6
aI1
asI43
(lp260
I2
aI7
aI3
asI44
(lp261
I9
aI9
aI1
asI45
(lp262
I4
aI1
aI3
asI46
(lp263
I3
aI2
aI2
asI47
(lp264
I7
aI3
aI3
asI48
(lp265
I6
aI7
aI3
asI49
(lp266
I1
aI9
aI1
asI50
(lp267
I0
aI0
aI1
asI51
(lp268
I2
aI0
aI3
asI52
(lp269
I7
aI2
aI2
asI53
(lp270
I8
aI8
aI1
asI54
(lp271
I8
aI3
aI3
asI55
(lp272
I5
aI9
aI1
asI56
(lp273
I5
aI2
aI4
asI57
(lp274
I7
aI9
aI2
asI58
(lp275
I1
aI8
aI1
asI59
(lp276
I7
aI1
aI2
asI60
(lp277
I8
aI7
aI4
asI61
(lp278
I3
aI8
aI3
asI62
(lp279
I5
aI4
aI3
asI63
(lp280
I2
aI3
aI2
asI64
(lp281
I9
aI2
aI2
asI65
(lp282
I5
aI5
aI1
asI66
(lp283
I6
aI9
aI1
asI67
(lp284
I5
aI8
aI2
asI68
(lp285
I6
aI5
aI3
asI69
(lp286
I9
aI4
aI1
asI70
(lp287
I8
aI6
aI2
asI71
(lp288
I0
aI7
aI1
asI72
(lp289
I0
aI6
aI1
asI73
(lp290
I7
aI8
aI3
asI74
(lp291
I4
aI3
aI2
asI75
(lp292
I2
aI5
aI1
asI76
(lp293
I7
aI5
aI2
asI77
(lp294
I0
aI8
aI3
asI78
(lp295
I9
aI7
aI2
asI79
(lp296
I4
aI2
aI1
asI80
(lp297
I0
aI5
aI2
asI81
(lp298
I8
aI5
aI2
asI82
(lp299
I2
aI4
aI3
asI83
(lp300
I2
aI6
aI2
asI84
(lp301
I6
aI2
aI3
asI85
(lp302
I9
aI5
aI2
asI86
(lp303
I4
aI9
aI2
asI87
(lp304
I5
aI1
aI2
asI88
(lp305
I2
aI2
aI2
asI89
(lp306
I8
aI0
aI1
asI90
(lp307
I2
aI1
aI2
asI91
(lp308
I9
aI3
aI1
asI92
(lp309
I8
aI2
aI2
asI93
(lp310
I6
aI6
aI1
asI94
(lp311
I2
aI8
aI1
asI95
(lp312
I3
aI9
aI2
asI96
(lp313
I1
aI4
aI4
asI97
(lp314
I5
aI3
aI1
asI98
(lp315
I1
aI6
aI3
asI99
(lp316
I9
aI8
aI2
assbtp317
.