(lp0
(lp1
(I37
I125
tp2
a(I38
I120
tp3
a(I40
I114
tp4
a(I43
I108
tp5
a(I46
I102
tp6
a(I49
I95
tp7
a(I53
I91
tp8
a(I56
I86
tp9
a(I58
I83
tp10
a(I60
I80
tp11
a(I64
I77
tp12
a(I67
I75
tp13
a(I69
I72
tp14
a(I73
I70
tp15
a(I77
I68
tp16
a(I82
I67
tp17
a(I87
I66
tp18
a(I92
I66
tp19
a(I97
I66
tp20
a(I103
I67
tp21
a(I107
I69
tp22
a(I112
I71
tp23
a(I117
I74
tp24
a(I121
I77
tp25
a(I127
I81
tp26
a(I132
I85
tp27
a(I137
I88
tp28
a(I142
I91
tp29
a(I147
I93
tp30
a(I153
I95
tp31
a(I157
I97
tp32
a(I163
I99
tp33
a(I169
I102
tp34
a(I176
I106
tp35
a(I183
I110
tp36
a(I189
I114
tp37
a(I195
I117
tp38
a(I200
I121
tp39
a(I206
I124
tp40
a(I211
I127
tp41
a(I217
I130
tp42
a(I223
I133
tp43
a(I229
I135
tp44
a(I234
I136
tp45
a(I239
I137
tp46
a(I243
I137
tp47
a(I247
I137
tp48
a(I250
I137
tp49
a(I253
I137
tp50
a(I255
I137
tp51
a(I257
I137
tp52
a(I260
I135
tp53
a(I262
I134
tp54
a(I265
I132
tp55
a(I268
I129
tp56
a(I271
I125
tp57
a(I274
I122
tp58
a(I276
I118
tp59
a(I278
I115
tp60
a(I281
I112
tp61
a(I283
I109
tp62
a(I286
I105
tp63
a(I288
I101
tp64
a(I291
I97
tp65
a(I293
I93
tp66
a(I295
I90
tp67
a(I296
I87
tp68
a(I298
I84
tp69
a(I299
I82
tp70
a(I300
I80
tp71
a(I300
I79
tp72
a(I301
I78
tp73
a(I301
I77
tp74
a(I301
I76
tp75
a(I301
I76
tp76
a(I301
I75
tp77
aa(lp78
(I89
I134
tp79
a(I91
I131
tp80
a(I94
I128
tp81
a(I97
I124
tp82
a(I101
I120
tp83
a(I105
I115
tp84
a(I109
I109
tp85
a(I113
I104
tp86
a(I117
I99
tp87
a(I121
I95
tp88
a(I124
I92
tp89
a(I128
I88
tp90
a(I132
I85
tp91
a(I136
I82
tp92
a(I141
I79
tp93
a(I145
I77
tp94
a(I149
I75
tp95
a(I153
I73
tp96
a(I157
I72
tp97
a(I162
I71
tp98
a(I166
I69
tp99
a(I172
I68
tp100
a(I177
I68
tp101
a(I184
I67
tp102
a(I189
I67
tp103
a(I195
I66
tp104
a(I200
I66
tp105
a(I205
I66
tp106
a(I211
I66
tp107
a(I216
I66
tp108
a(I222
I66
tp109
a(I228
I67
tp110
a(I234
I67
tp111
a(I239
I68
tp112
a(I244
I69
tp113
a(I249
I70
tp114
a(I254
I71
tp115
a(I258
I72
tp116
a(I263
I74
tp117
a(I268
I76
tp118
a(I274
I78
tp119
a(I279
I80
tp120
a(I284
I82
tp121
a(I290
I84
tp122
a(I295
I86
tp123
a(I302
I89
tp124
a(I308
I93
tp125
a(I315
I96
tp126
a(I322
I99
tp127
a(I328
I102
tp128
a(I334
I104
tp129
a(I339
I105
tp130
a(I344
I107
tp131
a(I348
I108
tp132
a(I354
I109
tp133
a(I358
I110
tp134
a(I363
I111
tp135
a(I367
I111
tp136
a(I372
I112
tp137
a(I375
I112
tp138
a(I379
I112
tp139
a(I382
I112
tp140
a(I385
I112
tp141
a(I387
I112
tp142
a(I389
I112
tp143
a(I391
I112
tp144
a(I393
I112
tp145
a(I395
I112
tp146
a(I397
I111
tp147
a(I399
I111
tp148
a(I402
I110
tp149
a(I404
I109
tp150
a(I406
I108
tp151
a(I408
I107
tp152
a(I410
I105
tp153
a(I412
I104
tp154
a(I414
I102
tp155
a(I415
I101
tp156
a(I417
I99
tp157
a(I418
I98
tp158
a(I419
I97
tp159
a(I419
I97
tp160
a(I420
I96
tp161
a(I421
I96
tp162
a(I421
I95
tp163
a(I422
I95
tp164
a(I422
I94
tp165
aa(lp166
(I362
I53
tp167
a(I365
I53
tp168
a(I368
I53
tp169
a(I371
I54
tp170
a(I373
I54
tp171
a(I376
I55
tp172
a(I378
I55
tp173
a(I380
I55
tp174
a(I381
I56
tp175
a(I383
I56
tp176
a(I384
I57
tp177
a(I385
I57
tp178
a(I386
I58
tp179
a(I387
I59
tp180
a(I388
I60
tp181
a(I389
I61
tp182
a(I391
I62
tp183
a(I392
I64
tp184
a(I393
I65
tp185
a(I393
I66
tp186
a(I394
I68
tp187
a(I394
I70
tp188
a(I394
I72
tp189
a(I394
I75
tp190
a(I394
I77
tp191
a(I394
I79
tp192
a(I394
I81
tp193
a(I394
I83
tp194
a(I394
I85
tp195
a(I394
I86
tp196
a(I394
I88
tp197
a(I393
I90
tp198
a(I392
I91
tp199
a(I391
I93
tp200
a(I390
I94
tp201
a(I389
I96
tp202
a(I387
I98
tp203
a(I384
I100
tp204
a(I381
I101
tp205
a(I379
I103
tp206
a(I377
I104
tp207
a(I374
I105
tp208
a(I372
I106
tp209
a(I370
I106
tp210
a(I367
I107
tp211
a(I365
I107
tp212
a(I363
I107
tp213
a(I361
I107
tp214
a(I359
I107
tp215
a(I357
I107
tp216
a(I355
I107
tp217
a(I354
I107
tp218
a(I352
I107
tp219
a(I350
I106
tp220
a(I348
I106
tp221
a(I347
I105
tp222
a(I345
I105
tp223
a(I343
I104
tp224
a(I342
I104
tp225
a(I340
I103
tp226
a(I339
I102
tp227
a(I338
I102
tp228
a(I337
I101
tp229
a(I335
I100
tp230
a(I334
I99
tp231
a(I333
I97
tp232
a(I332
I97
tp233
a(I332
I96
tp234
a(I331
I95
tp235
a(I330
I93
tp236
a(I330
I93
tp237
a(I330
I91
tp238
a(I330
I90
tp239
a(I330
I88
tp240
a(I330
I86
tp241
a(I330
I85
tp242
a(I330
I82
tp243
a(I330
I80
tp244
a(I330
I78
tp245
a(I331
I76
tp246
a(I332
I74
tp247
a(I333
I72
tp248
a(I334
I71
tp249
a(I335
I69
tp250
a(I337
I67
tp251
a(I338
I66
tp252
a(I339
I64
tp253
a(I340
I62
tp254
a(I341
I61
tp255
a(I343
I59
tp256
a(I345
I57
tp257
a(I348
I56
tp258
a(I350
I54
tp259
a(I353
I53
tp260
a(I357
I52
tp261
a(I360
I51
tp262
a(I363
I50
tp263
a(I366
I49
tp264
a(I369
I48
tp265
a(I371
I47
tp266
a(I374
I46
tp267
a(I376
I46
tp268
a(I378
I46
tp269
a(I380
I46
tp270
a(I381
I46
tp271
a(I383
I46
tp272
a(I384
I46
tp273
a(I385
I46
tp274
a(I387
I46
tp275
a(I388
I46
tp276
a(I389
I46
tp277
a(I390
I46
tp278
a(I391
I46
tp279
a(I392
I46
tp280
a(I393
I46
tp281
a(I394
I46
tp282
a(I395
I47
tp283
aa(lp284
(I332
I129
tp285
a(I335
I128
tp286
a(I338
I127
tp287
a(I341
I126
tp288
a(I344
I125
tp289
a(I347
I124
tp290
a(I351
I124
tp291
a(I354
I124
tp292
a(I357
I124
tp293
a(I360
I124
tp294
a(I362
I125
tp295
a(I365
I125
tp296
a(I367
I126
tp297
a(I370
I126
tp298
a(I373
I127
tp299
a(I375
I127
tp300
a(I377
I128
tp301
a(I379
I129
tp302
a(I381
I130
tp303
a(I383
I131
tp304
a(I385
I132
tp305
a(I387
I133
tp306
a(I390
I135
tp307
a(I391
I136
tp308
a(I393
I137
tp309
a(I395
I138
tp310
a(I396
I139
tp311
a(I398
I140
tp312
a(I399
I141
tp313
a(I400
I142
tp314
a(I401
I143
tp315
a(I402
I144
tp316
a(I403
I145
tp317
a(I405
I146
tp318
a(I406
I147
tp319
a(I406
I149
tp320
a(I407
I150
tp321
a(I407
I152
tp322
a(I407
I154
tp323
a(I407
I156
tp324
a(I407
I157
tp325
a(I406
I159
tp326
a(I406
I161
tp327
a(I405
I162
tp328
a(I403
I164
tp329
a(I402
I166
tp330
a(I400
I168
tp331
a(I397
I170
tp332
a(I395
I171
tp333
a(I392
I173
tp334
a(I389
I175
tp335
a(I386
I176
tp336
a(I382
I178
tp337
a(I377
I179
tp338
a(I373
I180
tp339
a(I368
I180
tp340
a(I364
I181
tp341
a(I360
I181
tp342
a(I355
I182
tp343
a(I352
I182
tp344
a(I348
I183
tp345
a(I345
I183
tp346
a(I341
I183
tp347
a(I337
I183
tp348
a(I333
I183
tp349
a(I330
I183
tp350
a(I326
I182
tp351
a(I323
I182
tp352
a(I320
I181
tp353
a(I317
I181
tp354
a(I314
I180
tp355
a(I311
I180
tp356
a(I309
I179
tp357
a(I306
I179
tp358
a(I303
I178
tp359
a(I301
I178
tp360
a(I299
I177
tp361
a(I296
I176
tp362
a(I293
I175
tp363
a(I290
I173
tp364
a(I286
I172
tp365
a(I282
I170
tp366
a(I279
I169
tp367
a(I275
I168
tp368
a(I271
I167
tp369
a(I267
I166
tp370
a(I264
I165
tp371
a(I261
I163
tp372
a(I257
I162
tp373
a(I254
I161
tp374
a(I250
I160
tp375
a(I246
I159
tp376
a(I243
I158
tp377
a(I239
I157
tp378
a(I235
I156
tp379
a(I232
I155
tp380
a(I227
I154
tp381
a(I224
I153
tp382
a(I220
I152
tp383
a(I216
I152
tp384
a(I213
I151
tp385
a(I209
I151
tp386
a(I205
I150
tp387
a(I201
I150
tp388
a(I197
I149
tp389
a(I193
I149
tp390
a(I189
I148
tp391
a(I185
I148
tp392
a(I181
I148
tp393
a(I176
I148
tp394
a(I173
I148
tp395
a(I170
I148
tp396
a(I165
I147
tp397
a(I162
I147
tp398
a(I157
I146
tp399
a(I153
I146
tp400
a(I149
I145
tp401
a(I145
I145
tp402
a(I140
I144
tp403
a(I136
I143
tp404
a(I132
I143
tp405
a(I129
I143
tp406
a(I125
I143
tp407
a(I122
I143
tp408
a(I119
I143
tp409
a(I115
I143
tp410
a(I112
I143
tp411
a(I109
I144
tp412
a(I105
I145
tp413
a(I102
I145
tp414
a(I99
I146
tp415
a(I95
I146
tp416
a(I93
I146
tp417
a(I91
I147
tp418
a(I89
I147
tp419
a(I87
I148
tp420
a(I85
I148
tp421
a(I84
I148
tp422
a(I83
I149
tp423
a(I82
I149
tp424
a(I81
I150
tp425
a(I80
I150
tp426
a(I79
I151
tp427
a(I78
I151
tp428
a(I78
I151
tp429
a(I76
I152
tp430
a(I76
I152
tp431
a(I75
I153
tp432
a(I73
I153
tp433
a(I72
I154
tp434
a(I71
I155
tp435
a(I70
I155
tp436
a(I69
I156
tp437
a(I69
I156
tp438
a(I68
I156
tp439
a(I67
I156
tp440
a(I65
I156
tp441
a(I64
I156
tp442
a(I63
I156
tp443
a(I62
I156
tp444
a(I61
I156
tp445
a(I59
I156
tp446
a(I58
I156
tp447
a(I56
I156
tp448
a(I54
I156
tp449
a(I53
I156
tp450
a(I51
I156
tp451
a(I50
I155
tp452
a(I48
I155
tp453
a(I46
I154
tp454
a(I44
I153
tp455
a(I42
I152
tp456
a(I40
I151
tp457
a(I38
I150
tp458
a(I37
I149
tp459
a(I35
I148
tp460
a(I33
I147
tp461
a(I32
I146
tp462
a(I30
I145
tp463
a(I28
I142
tp464
a(I27
I140
tp465
a(I25
I138
tp466
a(I24
I136
tp467
a(I23
I133
tp468
a(I22
I130
tp469
a(I21
I128
tp470
a(I20
I125
tp471
a(I20
I123
tp472
a(I19
I121
tp473
a(I19
I118
tp474
a(I19
I117
tp475
a(I19
I115
tp476
a(I19
I112
tp477
a(I19
I110
tp478
a(I19
I108
tp479
a(I19
I106
tp480
a(I19
I103
tp481
a(I19
I101
tp482
a(I19
I99
tp483
a(I20
I97
tp484
a(I20
I95
tp485
a(I21
I92
tp486
a(I22
I89
tp487
a(I24
I86
tp488
a(I26
I82
tp489
a(I28
I78
tp490
a(I31
I75
tp491
a(I33
I71
tp492
a(I35
I67
tp493
a(I38
I65
tp494
a(I41
I61
tp495
a(I43
I58
tp496
a(I46
I55
tp497
a(I49
I52
tp498
a(I51
I49
tp499
a(I54
I46
tp500
a(I56
I43
tp501
a(I59
I40
tp502
a(I61
I38
tp503
a(I64
I35
tp504
a(I68
I32
tp505
a(I71
I30
tp506
a(I73
I27
tp507
a(I77
I25
tp508
a(I80
I23
tp509
a(I83
I21
tp510
a(I86
I20
tp511
a(I89
I18
tp512
a(I91
I17
tp513
a(I94
I16
tp514
a(I97
I15
tp515
a(I99
I13
tp516
a(I102
I13
tp517
a(I105
I12
tp518
a(I108
I12
tp519
a(I111
I12
tp520
a(I114
I12
tp521
a(I118
I12
tp522
a(I122
I12
tp523
a(I125
I13
tp524
a(I129
I13
tp525
a(I132
I14
tp526
a(I134
I15
tp527
a(I137
I16
tp528
a(I139
I16
tp529
a(I141
I17
tp530
a(I143
I19
tp531
a(I145
I20
tp532
a(I148
I22
tp533
a(I150
I23
tp534
a(I152
I26
tp535
a(I154
I28
tp536
a(I157
I30
tp537
a(I159
I31
tp538
a(I161
I33
tp539
a(I164
I36
tp540
a(I167
I37
tp541
a(I169
I39
tp542
a(I172
I40
tp543
a(I174
I42
tp544
a(I177
I43
tp545
a(I179
I45
tp546
a(I181
I47
tp547
a(I182
I48
tp548
a(I184
I49
tp549
a(I186
I50
tp550
a(I188
I52
tp551
a(I189
I53
tp552
a(I191
I55
tp553
a(I192
I57
tp554
a(I194
I58
tp555
a(I197
I60
tp556
a(I199
I61
tp557
a(I201
I63
tp558
a(I203
I65
tp559
a(I205
I66
tp560
a(I208
I68
tp561
a(I210
I70
tp562
a(I213
I71
tp563
a(I217
I72
tp564
a(I220
I72
tp565
a(I223
I72
tp566
a(I227
I72
tp567
a(I230
I72
tp568
a(I232
I71
tp569
a(I235
I70
tp570
a(I237
I70
tp571
a(I239
I69
tp572
a(I241
I67
tp573
a(I243
I66
tp574
a(I246
I64
tp575
a(I249
I62
tp576
a(I252
I61
tp577
a(I255
I59
tp578
a(I259
I57
tp579
a(I262
I54
tp580
a(I265
I51
tp581
a(I269
I48
tp582
a(I272
I45
tp583
a(I275
I42
tp584
a(I279
I39
tp585
a(I282
I36
tp586
a(I285
I32
tp587
a(I288
I29
tp588
a(I291
I26
tp589
a(I294
I23
tp590
a(I299
I20
tp591
a(I303
I18
tp592
a(I307
I16
tp593
a(I311
I14
tp594
a(I314
I12
tp595
a(I318
I11
tp596
a(I320
I10
tp597
a(I322
I10
tp598
a(I325
I9
tp599
a(I327
I9
tp600
a(I329
I9
tp601
a(I332
I9
tp602
a(I334
I9
tp603
a(I338
I9
tp604
a(I341
I9
tp605
a(I345
I10
tp606
a(I354
I13
tp607
a(I365
I21
tp608
a(I369
I25
tp609
a(I372
I29
tp610
a(I375
I32
tp611
a(I379
I35
tp612
a(I382
I38
tp613
a(I386
I41
tp614
a(I390
I43
tp615
a(I393
I46
tp616
a(I398
I49
tp617
a(I401
I52
tp618
a(I405
I56
tp619
a(I409
I59
tp620
a(I412
I61
tp621
a(I415
I64
tp622
a(I418
I67
tp623
a(I421
I69
tp624
a(I425
I72
tp625
a(I429
I75
tp626
a(I432
I77
tp627
a(I435
I79
tp628
a(I439
I80
tp629
a(I443
I82
tp630
a(I446
I83
tp631
a(I449
I83
tp632
a(I452
I84
tp633
a(I454
I85
tp634
a(I457
I85
tp635
a(I459
I85
tp636
a(I461
I85
tp637
a(I462
I85
tp638
a(I464
I85
tp639
a(I465
I84
tp640
a(I467
I83
tp641
a(I469
I83
tp642
a(I470
I82
tp643
a(I471
I82
tp644
a(I472
I81
tp645
a(I473
I81
tp646
a(I473
I81
tp647
a(I474
I81
tp648
a(I474
I81
tp649
a(I475
I81
tp650
a(I475
I81
tp651
a(I476
I81
tp652
a(I477
I81
tp653
a(I477
I81
tp654
a(I477
I81
tp655
a(I478
I81
tp656
a(I478
I81
tp657
a(I479
I82
tp658
a(I480
I83
tp659
a(I480
I85
tp660
a(I480
I87
tp661
a(I480
I89
tp662
a(I480
I93
tp663
a(I481
I98
tp664
a(I480
I104
tp665
a(I479
I111
tp666
a(I477
I117
tp667
a(I476
I121
tp668
a(I475
I126
tp669
a(I473
I129
tp670
a(I471
I133
tp671
a(I470
I137
tp672
a(I468
I141
tp673
a(I466
I145
tp674
a(I464
I149
tp675
a(I461
I153
tp676
a(I459
I157
tp677
a(I458
I160
tp678
a(I456
I162
tp679
a(I455
I165
tp680
a(I454
I167
tp681
a(I453
I168
tp682
a(I453
I169
tp683
a(I452
I170
tp684
a(I451
I171
tp685
a(I451
I171
tp686
a(I450
I172
tp687
a(I450
I172
tp688
a(I449
I173
tp689
a(I449
I173
tp690
a(I449
I174
tp691
a(I449
I175
tp692
a(I448
I175
tp693
a(I447
I176
tp694
a(I446
I176
tp695
a(I445
I176
tp696
a(I443
I177
tp697
a(I442
I178
tp698
a(I442
I178
tp699
a(I440
I178
tp700
a(I439
I178
tp701
a(I438
I178
tp702
a(I437
I178
tp703
a(I436
I178
tp704
a(I436
I178
tp705
a(I435
I178
tp706
a(I434
I178
tp707
a(I434
I178
tp708
a(I433
I178
tp709
a(I433
I178
tp710
a(I432
I178
tp711
a(I432
I178
tp712
a(I432
I178
tp713
a(I432
I178
tp714
aa(lp715
(I343
I150
tp716
a(I345
I150
tp717
a(I347
I150
tp718
a(I348
I150
tp719
a(I350
I150
tp720
a(I352
I150
tp721
a(I353
I150
tp722
a(I354
I150
tp723
a(I355
I150
tp724
a(I356
I150
tp725
a(I357
I150
tp726
a(I357
I150
tp727
a(I358
I150
tp728
a(I358
I150
tp729
a(I359
I150
tp730
a(I359
I150
tp731
a(I360
I150
tp732
a(I361
I150
tp733
a(I361
I150
tp734
a(I362
I150
tp735
a(I362
I150
tp736
a(I363
I150
tp737
a(I363
I150
tp738
a(I363
I150
tp739
a(I363
I151
tp740
a(I363
I151
tp741
a(I363
I152
tp742
a(I363
I152
tp743
a(I363
I153
tp744
a(I363
I153
tp745
a(I363
I154
tp746
a(I363
I154
tp747
a(I364
I155
tp748
a(I364
I155
tp749
a(I364
I156
tp750
a(I363
I157
tp751
a(I363
I158
tp752
a(I361
I159
tp753
a(I360
I160
tp754
a(I358
I162
tp755
a(I356
I163
tp756
a(I353
I163
tp757
a(I351
I164
tp758
a(I349
I164
tp759
a(I347
I165
tp760
a(I345
I165
tp761
a(I343
I166
tp762
a(I341
I166
tp763
a(I340
I166
tp764
a(I338
I166
tp765
a(I337
I166
tp766
a(I335
I166
tp767
a(I334
I166
tp768
a(I332
I166
tp769
a(I330
I166
tp770
a(I329
I166
tp771
a(I327
I166
tp772
a(I326
I166
tp773
a(I324
I166
tp774
a(I322
I166
tp775
a(I319
I166
tp776
a(I317
I166
tp777
a(I315
I166
tp778
a(I312
I166
tp779
a(I309
I166
tp780
a(I306
I166
tp781
a(I303
I166
tp782
a(I300
I166
tp783
a(I296
I166
tp784
a(I293
I166
tp785
a(I289
I166
tp786
a(I285
I166
tp787
a(I283
I166
tp788
a(I279
I166
tp789
a(I275
I166
tp790
a(I270
I166
tp791
a(I266
I165
tp792
a(I263
I165
tp793
a(I259
I165
tp794
a(I255
I165
tp795
a(I251
I165
tp796
a(I247
I165
tp797
a(I244
I165
tp798
a(I240
I165
tp799
a(I237
I165
tp800
a(I233
I165
tp801
a(I229
I165
tp802
a(I226
I165
tp803
a(I222
I165
tp804
a(I218
I165
tp805
a(I214
I165
tp806
a(I211
I165
tp807
a(I206
I164
tp808
a(I203
I164
tp809
a(I199
I164
tp810
a(I196
I163
tp811
a(I193
I163
tp812
a(I189
I163
tp813
a(I186
I163
tp814
a(I182
I163
tp815
a(I179
I163
tp816
a(I175
I162
tp817
a(I171
I162
tp818
a(I168
I162
tp819
a(I165
I162
tp820
a(I161
I162
tp821
a(I158
I162
tp822
a(I156
I162
tp823
a(I154
I162
tp824
a(I151
I162
tp825
a(I149
I162
tp826
a(I147
I162
tp827
a(I145
I162
tp828
a(I143
I162
tp829
a(I141
I162
tp830
a(I139
I162
tp831
a(I137
I162
tp832
a(I135
I162
tp833
a(I132
I162
tp834
a(I129
I162
tp835
a(I126
I162
tp836
a(I124
I162
tp837
a(I121
I163
tp838
a(I118
I163
tp839
a(I115
I164
tp840
a(I112
I164
tp841
a(I109
I165
tp842
a(I106
I166
tp843
a(I104
I166
tp844
a(I101
I167
tp845
a(I98
I167
tp846
a(I96
I168
tp847
a(I93
I168
tp848
a(I89
I169
tp849
a(I86
I169
tp850
a(I83
I170
tp851
a(I80
I170
tp852
a(I77
I171
tp853
a(I74
I172
tp854
a(I72
I172
tp855
a(I68
I172
tp856
a(I67
I172
tp857
a(I64
I173
tp858
a(I62
I173
tp859
a(I60
I173
tp860
a(I58
I174
tp861
a(I57
I174
tp862
a(I56
I174
tp863
a(I54
I174
tp864
a(I52
I174
tp865
a(I51
I174
tp866
a(I49
I174
tp867
a(I47
I175
tp868
a(I46
I175
tp869
a(I44
I175
tp870
a(I42
I175
tp871
a(I39
I175
tp872
a(I36
I175
tp873
a(I33
I175
tp874
a(I30
I176
tp875
a(I28
I176
tp876
a(I26
I176
tp877
a(I23
I176
tp878
a(I22
I176
tp879
a(I19
I176
tp880
a(I17
I176
tp881
a(I15
I176
tp882
a(I13
I176
tp883
a(I12
I176
tp884
a(I10
I176
tp885
a(I8
I176
tp886
a(I7
I176
tp887
a(I5
I176
tp888
a(I4
I176
tp889
a(I2
I176
tp890
a(I1
I176
tp891
a(I0
I176
tp892
a(I-1
I176
tp893
a(I-1
I176
tp894
a(I-2
I176
tp895
a(I-2
I176
tp896
a(I-3
I176
tp897
a(I-3
I176
tp898
a(I-4
I176
tp899
a(I-4
I176
tp900
aa(lp901
a.