(lp0
(lp1
(I57
I84
tp2
a(I59
I78
tp3
a(I61
I73
tp4
a(I63
I69
tp5
a(I65
I66
tp6
a(I68
I62
tp7
a(I70
I58
tp8
a(I72
I56
tp9
a(I74
I55
tp10
a(I75
I53
tp11
a(I75
I52
tp12
a(I76
I51
tp13
a(I77
I51
tp14
a(I78
I51
tp15
a(I79
I51
tp16
a(I80
I51
tp17
a(I81
I51
tp18
a(I84
I53
tp19
a(I88
I59
tp20
a(I91
I67
tp21
a(I93
I74
tp22
a(I94
I79
tp23
a(I95
I84
tp24
a(I96
I89
tp25
a(I97
I95
tp26
a(I98
I101
tp27
a(I98
I107
tp28
a(I99
I112
tp29
a(I99
I116
tp30
a(I100
I120
tp31
a(I100
I123
tp32
a(I100
I125
tp33
a(I101
I127
tp34
a(I101
I128
tp35
a(I101
I128
tp36
a(I101
I129
tp37
a(I104
I129
tp38
a(I108
I128
tp39
a(I115
I122
tp40
a(I123
I116
tp41
a(I130
I110
tp42
a(I138
I103
tp43
a(I147
I92
tp44
a(I157
I81
tp45
a(I164
I74
tp46
a(I170
I68
tp47
a(I175
I64
tp48
a(I179
I60
tp49
a(I182
I58
tp50
a(I185
I56
tp51
a(I186
I54
tp52
a(I187
I52
tp53
a(I188
I51
tp54
a(I189
I51
tp55
a(I189
I50
tp56
a(I190
I50
tp57
a(I191
I50
tp58
a(I191
I50
tp59
a(I192
I50
tp60
a(I194
I53
tp61
a(I195
I63
tp62
a(I196
I72
tp63
a(I197
I79
tp64
a(I197
I87
tp65
a(I197
I96
tp66
a(I196
I104
tp67
a(I196
I112
tp68
a(I196
I117
tp69
a(I196
I121
tp70
a(I196
I124
tp71
a(I196
I127
tp72
a(I196
I128
tp73
a(I196
I130
tp74
a(I196
I131
tp75
a(I196
I131
tp76
a(I196
I132
tp77
a(I196
I132
tp78
a(I196
I133
tp79
a(I198
I134
tp80
a(I202
I134
tp81
a(I207
I132
tp82
a(I213
I129
tp83
a(I219
I125
tp84
a(I225
I120
tp85
a(I230
I115
tp86
a(I236
I111
tp87
a(I243
I107
tp88
a(I250
I102
tp89
a(I258
I96
tp90
a(I265
I90
tp91
a(I271
I83
tp92
a(I277
I77
tp93
a(I282
I71
tp94
a(I286
I67
tp95
a(I290
I63
tp96
a(I295
I60
tp97
a(I298
I57
tp98
a(I301
I53
tp99
a(I305
I51
tp100
a(I307
I50
tp101
a(I308
I49
tp102
a(I309
I48
tp103
a(I310
I47
tp104
a(I311
I47
tp105
a(I311
I47
tp106
a(I312
I47
tp107
a(I312
I47
tp108
a(I313
I47
tp109
a(I314
I47
tp110
a(I314
I47
tp111
a(I316
I50
tp112
a(I318
I57
tp113
a(I319
I66
tp114
a(I320
I72
tp115
a(I320
I78
tp116
a(I321
I83
tp117
a(I322
I90
tp118
a(I322
I98
tp119
a(I324
I104
tp120
a(I324
I111
tp121
a(I325
I115
tp122
a(I325
I119
tp123
a(I326
I122
tp124
a(I326
I124
tp125
a(I326
I125
tp126
a(I327
I127
tp127
a(I327
I128
tp128
a(I327
I128
tp129
a(I327
I129
tp130
a(I328
I129
tp131
a(I328
I129
tp132
a(I329
I129
tp133
a(I331
I130
tp134
a(I333
I130
tp135
a(I337
I129
tp136
a(I340
I127
tp137
a(I345
I123
tp138
a(I351
I119
tp139
a(I357
I114
tp140
a(I362
I111
tp141
a(I367
I108
tp142
a(I371
I104
tp143
a(I376
I102
tp144
a(I381
I99
tp145
a(I386
I96
tp146
a(I391
I93
tp147
a(I396
I91
tp148
a(I400
I89
tp149
a(I404
I87
tp150
a(I407
I86
tp151
a(I410
I84
tp152
a(I412
I84
tp153
a(I413
I83
tp154
a(I415
I83
tp155
a(I417
I83
tp156
a(I418
I83
tp157
a(I419
I83
tp158
a(I420
I83
tp159
a(I421
I83
tp160
a(I422
I83
tp161
a(I423
I84
tp162
a(I424
I84
tp163
a(I425
I85
tp164
a(I426
I86
tp165
a(I427
I86
tp166
a(I428
I87
tp167
a(I429
I88
tp168
a(I431
I89
tp169
a(I434
I93
tp170
a(I437
I98
tp171
a(I440
I103
tp172
a(I443
I110
tp173
a(I446
I116
tp174
a(I448
I120
tp175
a(I450
I124
tp176
a(I451
I127
tp177
a(I453
I129
tp178
a(I454
I131
tp179
a(I455
I132
tp180
a(I456
I133
tp181
a(I456
I133
tp182
a(I457
I134
tp183
a(I457
I134
tp184
a(I458
I135
tp185
aa(lp186
(I69
I129
tp187
a(I72
I124
tp188
a(I76
I119
tp189
a(I79
I115
tp190
a(I83
I111
tp191
a(I87
I105
tp192
a(I92
I101
tp193
a(I97
I95
tp194
a(I102
I90
tp195
a(I109
I85
tp196
a(I114
I81
tp197
a(I119
I78
tp198
a(I123
I76
tp199
a(I127
I74
tp200
a(I129
I73
tp201
a(I132
I72
tp202
a(I134
I72
tp203
a(I136
I72
tp204
a(I138
I72
tp205
a(I139
I72
tp206
a(I141
I72
tp207
a(I143
I73
tp208
a(I146
I74
tp209
a(I148
I77
tp210
a(I150
I80
tp211
a(I152
I83
tp212
a(I153
I86
tp213
a(I155
I89
tp214
a(I157
I93
tp215
a(I159
I98
tp216
a(I160
I103
tp217
a(I162
I109
tp218
a(I163
I115
tp219
a(I164
I120
tp220
a(I165
I124
tp221
a(I166
I127
tp222
a(I167
I129
tp223
a(I167
I132
tp224
a(I168
I133
tp225
a(I169
I135
tp226
a(I170
I136
tp227
a(I171
I137
tp228
a(I172
I138
tp229
a(I173
I139
tp230
a(I174
I141
tp231
a(I177
I142
tp232
a(I179
I143
tp233
a(I183
I144
tp234
a(I188
I144
tp235
a(I194
I144
tp236
a(I201
I144
tp237
a(I208
I142
tp238
a(I214
I141
tp239
a(I220
I138
tp240
a(I225
I134
tp241
a(I230
I129
tp242
a(I236
I125
tp243
a(I242
I120
tp244
a(I248
I116
tp245
a(I253
I113
tp246
a(I258
I110
tp247
a(I261
I107
tp248
a(I265
I105
tp249
a(I268
I102
tp250
a(I271
I100
tp251
a(I273
I98
tp252
a(I276
I96
tp253
a(I278
I94
tp254
a(I280
I93
tp255
a(I282
I91
tp256
a(I285
I89
tp257
a(I287
I88
tp258
a(I289
I88
tp259
a(I291
I87
tp260
a(I293
I87
tp261
a(I294
I87
tp262
a(I296
I87
tp263
a(I298
I87
tp264
a(I299
I87
tp265
a(I300
I88
tp266
a(I302
I89
tp267
a(I304
I91
tp268
a(I306
I92
tp269
a(I308
I94
tp270
a(I310
I96
tp271
a(I312
I99
tp272
a(I314
I103
tp273
a(I317
I107
tp274
a(I319
I111
tp275
a(I320
I114
tp276
a(I322
I118
tp277
a(I323
I121
tp278
a(I325
I124
tp279
a(I327
I126
tp280
a(I328
I128
tp281
a(I330
I130
tp282
a(I331
I131
tp283
a(I333
I133
tp284
a(I335
I134
tp285
a(I337
I135
tp286
a(I340
I136
tp287
a(I343
I137
tp288
a(I346
I137
tp289
a(I350
I137
tp290
a(I353
I137
tp291
a(I357
I137
tp292
a(I361
I136
tp293
a(I364
I134
tp294
a(I369
I131
tp295
a(I374
I127
tp296
a(I380
I123
tp297
a(I387
I119
tp298
a(I392
I115
tp299
a(I398
I112
tp300
a(I403
I109
tp301
a(I408
I106
tp302
a(I412
I103
tp303
a(I417
I101
tp304
a(I421
I98
tp305
a(I425
I95
tp306
a(I429
I93
tp307
a(I432
I92
tp308
a(I434
I90
tp309
a(I437
I89
tp310
a(I439
I89
tp311
a(I440
I89
tp312
a(I442
I89
tp313
a(I443
I89
tp314
a(I444
I89
tp315
a(I445
I89
tp316
a(I447
I89
tp317
a(I449
I89
tp318
a(I450
I91
tp319
a(I452
I92
tp320
a(I454
I93
tp321
a(I457
I95
tp322
a(I459
I96
tp323
a(I461
I98
tp324
a(I464
I102
tp325
a(I466
I105
tp326
a(I468
I107
tp327
a(I470
I110
tp328
a(I471
I112
tp329
a(I472
I114
tp330
a(I472
I115
tp331
a(I473
I116
tp332
a(I473
I117
tp333
a(I474
I118
tp334
a(I474
I118
tp335
a(I475
I119
tp336
a(I475
I119
tp337
a(I476
I119
tp338
a(I476
I119
tp339
a(I477
I119
tp340
aa(lp341
(I455
I140
tp342
a(I453
I136
tp343
a(I450
I132
tp344
a(I446
I128
tp345
a(I443
I124
tp346
a(I440
I121
tp347
a(I437
I117
tp348
a(I434
I113
tp349
a(I430
I110
tp350
a(I426
I106
tp351
a(I423
I101
tp352
a(I420
I97
tp353
a(I416
I92
tp354
a(I413
I87
tp355
a(I411
I84
tp356
a(I410
I81
tp357
a(I408
I77
tp358
a(I406
I75
tp359
a(I405
I73
tp360
a(I404
I71
tp361
a(I403
I69
tp362
a(I402
I67
tp363
a(I401
I66
tp364
a(I400
I64
tp365
a(I399
I63
tp366
a(I398
I62
tp367
a(I396
I60
tp368
a(I395
I58
tp369
a(I393
I57
tp370
a(I391
I55
tp371
a(I387
I53
tp372
a(I383
I51
tp373
a(I378
I50
tp374
a(I373
I49
tp375
a(I369
I48
tp376
a(I365
I47
tp377
a(I362
I46
tp378
a(I359
I46
tp379
a(I355
I46
tp380
a(I352
I46
tp381
a(I348
I47
tp382
a(I345
I47
tp383
a(I342
I48
tp384
a(I339
I49
tp385
a(I336
I50
tp386
a(I333
I51
tp387
a(I331
I52
tp388
a(I329
I53
tp389
a(I327
I54
tp390
a(I324
I56
tp391
a(I322
I58
tp392
a(I320
I61
tp393
a(I316
I64
tp394
a(I314
I68
tp395
a(I311
I72
tp396
a(I309
I76
tp397
a(I306
I80
tp398
a(I304
I83
tp399
a(I302
I85
tp400
a(I300
I87
tp401
a(I298
I90
tp402
a(I295
I92
tp403
a(I293
I94
tp404
a(I291
I96
tp405
a(I289
I98
tp406
a(I287
I100
tp407
a(I285
I102
tp408
a(I284
I104
tp409
a(I282
I105
tp410
a(I280
I107
tp411
a(I279
I108
tp412
a(I277
I110
tp413
a(I275
I111
tp414
a(I274
I112
tp415
a(I272
I113
tp416
a(I270
I114
tp417
a(I269
I115
tp418
a(I266
I116
tp419
a(I265
I117
tp420
a(I263
I118
tp421
a(I260
I118
tp422
a(I257
I120
tp423
a(I254
I120
tp424
a(I250
I121
tp425
a(I245
I121
tp426
a(I241
I122
tp427
a(I236
I122
tp428
a(I231
I122
tp429
a(I226
I122
tp430
a(I222
I122
tp431
a(I216
I122
tp432
a(I211
I122
tp433
a(I206
I121
tp434
a(I201
I120
tp435
a(I196
I118
tp436
a(I192
I117
tp437
a(I188
I116
tp438
a(I184
I115
tp439
a(I181
I114
tp440
a(I178
I113
tp441
a(I174
I112
tp442
a(I172
I111
tp443
a(I169
I110
tp444
a(I166
I108
tp445
a(I164
I107
tp446
a(I161
I106
tp447
a(I158
I105
tp448
a(I155
I103
tp449
a(I152
I102
tp450
a(I149
I101
tp451
a(I146
I100
tp452
a(I144
I98
tp453
a(I141
I97
tp454
a(I139
I96
tp455
a(I136
I95
tp456
a(I134
I94
tp457
a(I132
I93
tp458
a(I130
I92
tp459
a(I128
I92
tp460
a(I126
I91
tp461
a(I124
I91
tp462
a(I122
I90
tp463
a(I120
I90
tp464
a(I118
I89
tp465
a(I115
I88
tp466
a(I113
I88
tp467
a(I110
I87
tp468
a(I108
I87
tp469
a(I105
I87
tp470
a(I102
I87
tp471
a(I100
I87
tp472
a(I97
I87
tp473
a(I94
I87
tp474
a(I91
I87
tp475
a(I89
I87
tp476
a(I87
I88
tp477
a(I85
I88
tp478
a(I83
I89
tp479
a(I81
I90
tp480
a(I79
I90
tp481
a(I78
I91
tp482
a(I76
I92
tp483
a(I74
I93
tp484
a(I72
I94
tp485
a(I70
I95
tp486
a(I68
I96
tp487
a(I66
I96
tp488
a(I64
I97
tp489
a(I62
I97
tp490
a(I60
I98
tp491
a(I58
I98
tp492
a(I56
I99
tp493
a(I54
I100
tp494
a(I53
I100
tp495
a(I51
I101
tp496
a(I50
I101
tp497
a(I48
I102
tp498
a(I48
I102
tp499
a(I46
I102
tp500
a(I46
I102
tp501
a(I45
I102
tp502
a(I45
I102
tp503
a(I44
I102
tp504
a(I44
I102
tp505
a(I43
I102
tp506
a(I43
I102
tp507
aa(lp508
(I63
I155
tp509
a(I66
I150
tp510
a(I69
I145
tp511
a(I72
I141
tp512
a(I75
I137
tp513
a(I78
I133
tp514
a(I80
I130
tp515
a(I83
I127
tp516
a(I85
I124
tp517
a(I88
I120
tp518
a(I92
I117
tp519
a(I95
I112
tp520
a(I98
I107
tp521
a(I101
I102
tp522
a(I105
I97
tp523
a(I108
I93
tp524
a(I112
I89
tp525
a(I116
I85
tp526
a(I121
I81
tp527
a(I126
I78
tp528
a(I130
I74
tp529
a(I134
I72
tp530
a(I138
I69
tp531
a(I144
I66
tp532
a(I149
I63
tp533
a(I155
I60
tp534
a(I162
I58
tp535
a(I168
I55
tp536
a(I174
I54
tp537
a(I178
I53
tp538
a(I184
I53
tp539
a(I189
I53
tp540
a(I194
I53
tp541
a(I200
I54
tp542
a(I206
I55
tp543
a(I212
I57
tp544
a(I217
I59
tp545
a(I222
I60
tp546
a(I227
I62
tp547
a(I232
I63
tp548
a(I237
I65
tp549
a(I242
I69
tp550
a(I247
I73
tp551
a(I252
I77
tp552
a(I257
I82
tp553
a(I261
I87
tp554
a(I265
I90
tp555
a(I268
I93
tp556
a(I270
I96
tp557
a(I273
I99
tp558
a(I276
I101
tp559
a(I279
I104
tp560
a(I282
I107
tp561
a(I285
I110
tp562
a(I288
I113
tp563
a(I292
I116
tp564
a(I295
I119
tp565
a(I299
I122
tp566
a(I303
I124
tp567
a(I306
I127
tp568
a(I309
I129
tp569
a(I313
I131
tp570
a(I316
I132
tp571
a(I320
I133
tp572
a(I325
I133
tp573
a(I330
I133
tp574
a(I336
I133
tp575
a(I342
I132
tp576
a(I347
I131
tp577
a(I353
I130
tp578
a(I357
I129
tp579
a(I362
I127
tp580
a(I366
I125
tp581
a(I369
I123
tp582
a(I373
I121
tp583
a(I376
I120
tp584
a(I379
I118
tp585
a(I383
I116
tp586
a(I387
I114
tp587
a(I390
I111
tp588
a(I395
I107
tp589
a(I399
I104
tp590
a(I403
I100
tp591
a(I406
I97
tp592
a(I409
I93
tp593
a(I412
I90
tp594
a(I414
I87
tp595
a(I416
I84
tp596
a(I418
I82
tp597
a(I420
I79
tp598
a(I422
I77
tp599
a(I423
I74
tp600
a(I425
I71
tp601
a(I427
I68
tp602
a(I429
I64
tp603
a(I431
I61
tp604
a(I433
I58
tp605
a(I434
I54
tp606
a(I436
I51
tp607
a(I437
I49
tp608
a(I438
I47
tp609
a(I440
I44
tp610
a(I441
I43
tp611
a(I442
I42
tp612
a(I443
I41
tp613
a(I444
I40
tp614
a(I445
I39
tp615
a(I446
I38
tp616
a(I447
I37
tp617
a(I449
I37
tp618
a(I450
I36
tp619
a(I452
I36
tp620
a(I454
I36
tp621
a(I456
I36
tp622
a(I458
I36
tp623
a(I460
I36
tp624
a(I462
I37
tp625
a(I463
I38
tp626
a(I465
I39
tp627
a(I466
I40
tp628
a(I468
I41
tp629
a(I469
I42
tp630
a(I470
I43
tp631
a(I472
I44
tp632
a(I473
I45
tp633
a(I474
I46
tp634
a(I475
I47
tp635
a(I476
I48
tp636
a(I477
I49
tp637
a(I478
I50
tp638
a(I479
I51
tp639
a(I480
I52
tp640
a(I480
I53
tp641
a(I481
I54
tp642
a(I482
I55
tp643
a(I482
I57
tp644
a(I483
I58
tp645
a(I483
I59
tp646
a(I484
I59
tp647
a(I484
I60
tp648
aa(lp649
(I457
I152
tp650
a(I454
I149
tp651
a(I451
I146
tp652
a(I448
I143
tp653
a(I444
I140
tp654
a(I441
I137
tp655
a(I437
I134
tp656
a(I433
I131
tp657
a(I428
I127
tp658
a(I424
I125
tp659
a(I420
I122
tp660
a(I416
I120
tp661
a(I412
I116
tp662
a(I409
I113
tp663
a(I405
I111
tp664
a(I401
I107
tp665
a(I397
I103
tp666
a(I393
I98
tp667
a(I388
I95
tp668
a(I383
I91
tp669
a(I379
I88
tp670
a(I374
I84
tp671
a(I369
I82
tp672
a(I364
I79
tp673
a(I358
I76
tp674
a(I351
I73
tp675
a(I343
I71
tp676
a(I336
I68
tp677
a(I329
I66
tp678
a(I323
I63
tp679
a(I316
I61
tp680
a(I309
I58
tp681
a(I301
I56
tp682
a(I294
I54
tp683
a(I288
I53
tp684
a(I282
I52
tp685
a(I277
I52
tp686
a(I272
I52
tp687
a(I267
I53
tp688
a(I262
I54
tp689
a(I257
I56
tp690
a(I251
I58
tp691
a(I246
I60
tp692
a(I241
I62
tp693
a(I237
I64
tp694
a(I233
I65
tp695
a(I230
I67
tp696
a(I227
I68
tp697
a(I224
I71
tp698
a(I221
I72
tp699
a(I218
I75
tp700
a(I214
I79
tp701
a(I210
I84
tp702
a(I206
I88
tp703
a(I202
I93
tp704
a(I199
I97
tp705
a(I196
I101
tp706
a(I192
I104
tp707
a(I189
I107
tp708
a(I186
I111
tp709
a(I183
I115
tp710
a(I180
I119
tp711
a(I177
I124
tp712
a(I174
I128
tp713
a(I171
I133
tp714
a(I169
I137
tp715
a(I166
I141
tp716
a(I163
I144
tp717
a(I161
I146
tp718
a(I158
I149
tp719
a(I156
I152
tp720
a(I152
I154
tp721
a(I149
I156
tp722
a(I147
I157
tp723
a(I144
I159
tp724
a(I142
I161
tp725
a(I139
I162
tp726
a(I137
I163
tp727
a(I134
I163
tp728
a(I131
I164
tp729
a(I128
I165
tp730
a(I125
I165
tp731
a(I121
I166
tp732
a(I117
I166
tp733
a(I113
I166
tp734
a(I109
I166
tp735
a(I104
I166
tp736
a(I100
I166
tp737
a(I95
I166
tp738
a(I91
I166
tp739
a(I87
I166
tp740
a(I82
I165
tp741
a(I78
I165
tp742
a(I72
I164
tp743
a(I67
I163
tp744
a(I62
I162
tp745
a(I58
I160
tp746
a(I53
I158
tp747
a(I50
I157
tp748
a(I46
I155
tp749
a(I43
I154
tp750
a(I40
I153
tp751
a(I38
I151
tp752
a(I36
I150
tp753
a(I34
I148
tp754
a(I32
I146
tp755
a(I31
I145
tp756
a(I29
I144
tp757
a(I28
I143
tp758
a(I28
I142
tp759
a(I27
I142
tp760
a(I27
I141
tp761
aa(lp762
(I88
I66
tp763
a(I91
I62
tp764
a(I94
I60
tp765
a(I97
I58
tp766
a(I101
I55
tp767
a(I105
I53
tp768
a(I110
I50
tp769
a(I116
I48
tp770
a(I122
I46
tp771
a(I128
I45
tp772
a(I134
I43
tp773
a(I139
I42
tp774
a(I145
I41
tp775
a(I151
I40
tp776
a(I157
I40
tp777
a(I164
I39
tp778
a(I171
I39
tp779
a(I177
I39
tp780
a(I183
I39
tp781
a(I188
I39
tp782
a(I194
I40
tp783
a(I200
I41
tp784
a(I207
I42
tp785
a(I214
I43
tp786
a(I221
I45
tp787
a(I226
I47
tp788
a(I231
I49
tp789
a(I236
I52
tp790
a(I241
I56
tp791
a(I246
I59
tp792
a(I251
I62
tp793
a(I256
I65
tp794
a(I261
I68
tp795
a(I266
I70
tp796
a(I270
I72
tp797
a(I274
I75
tp798
a(I278
I76
tp799
a(I282
I78
tp800
a(I286
I79
tp801
a(I290
I81
tp802
a(I295
I83
tp803
a(I299
I86
tp804
a(I305
I88
tp805
a(I309
I91
tp806
a(I314
I93
tp807
a(I319
I96
tp808
a(I323
I98
tp809
a(I326
I100
tp810
a(I330
I102
tp811
a(I334
I104
tp812
a(I338
I106
tp813
a(I342
I107
tp814
a(I347
I109
tp815
a(I351
I110
tp816
a(I355
I110
tp817
a(I358
I111
tp818
a(I362
I111
tp819
a(I365
I111
tp820
a(I368
I111
tp821
a(I371
I111
tp822
a(I374
I110
tp823
a(I377
I109
tp824
a(I379
I108
tp825
a(I383
I107
tp826
a(I386
I106
tp827
a(I389
I104
tp828
a(I393
I102
tp829
a(I396
I100
tp830
a(I400
I98
tp831
a(I404
I96
tp832
a(I407
I93
tp833
a(I410
I91
tp834
a(I414
I89
tp835
a(I417
I87
tp836
a(I419
I85
tp837
a(I422
I83
tp838
a(I425
I80
tp839
a(I428
I77
tp840
a(I431
I74
tp841
a(I434
I69
tp842
a(I437
I66
tp843
a(I439
I62
tp844
a(I442
I59
tp845
a(I444
I56
tp846
a(I446
I53
tp847
a(I448
I51
tp848
a(I449
I50
tp849
a(I450
I48
tp850
a(I452
I47
tp851
a(I453
I46
tp852
a(I454
I45
tp853
a(I454
I45
tp854
a(I455
I44
tp855
a(I455
I43
tp856
a(I456
I43
tp857
a(I456
I42
tp858
aa(lp859
a.