(lp0
(lp1
(I64
I81
tp2
a(I63
I84
tp3
a(I63
I87
tp4
a(I63
I89
tp5
a(I64
I92
tp6
a(I64
I96
tp7
a(I65
I99
tp8
a(I67
I103
tp9
a(I68
I107
tp10
a(I69
I110
tp11
a(I72
I113
tp12
a(I73
I116
tp13
a(I75
I119
tp14
a(I76
I121
tp15
a(I78
I122
tp16
a(I80
I124
tp17
a(I82
I126
tp18
a(I84
I127
tp19
a(I87
I128
tp20
a(I90
I128
tp21
a(I94
I128
tp22
a(I97
I128
tp23
a(I101
I127
tp24
a(I105
I125
tp25
a(I109
I123
tp26
a(I114
I120
tp27
a(I119
I118
tp28
a(I123
I115
tp29
a(I127
I112
tp30
a(I130
I110
tp31
a(I134
I109
tp32
a(I136
I107
tp33
a(I138
I106
tp34
a(I140
I105
tp35
a(I141
I104
tp36
a(I142
I103
tp37
a(I143
I103
tp38
a(I143
I102
tp39
a(I144
I102
tp40
a(I144
I101
tp41
a(I145
I100
tp42
a(I145
I99
tp43
a(I144
I98
tp44
a(I143
I96
tp45
a(I142
I94
tp46
a(I140
I91
tp47
a(I137
I88
tp48
a(I134
I86
tp49
a(I131
I83
tp50
a(I127
I80
tp51
a(I124
I78
tp52
a(I120
I76
tp53
a(I117
I75
tp54
a(I113
I74
tp55
a(I110
I73
tp56
a(I109
I73
tp57
a(I107
I73
tp58
a(I106
I73
tp59
aa(lp60
(I196
I73
tp61
a(I194
I75
tp62
a(I192
I77
tp63
a(I191
I79
tp64
a(I189
I81
tp65
a(I188
I83
tp66
a(I185
I85
tp67
a(I183
I87
tp68
a(I181
I89
tp69
a(I180
I92
tp70
a(I178
I95
tp71
a(I176
I97
tp72
a(I175
I100
tp73
a(I174
I103
tp74
a(I174
I105
tp75
a(I174
I108
tp76
a(I174
I110
tp77
a(I174
I113
tp78
a(I174
I116
tp79
a(I175
I118
tp80
a(I175
I120
tp81
a(I176
I123
tp82
a(I178
I125
tp83
a(I179
I126
tp84
a(I182
I128
tp85
a(I185
I130
tp86
a(I190
I133
tp87
a(I194
I134
tp88
a(I199
I135
tp89
a(I204
I136
tp90
a(I208
I136
tp91
a(I212
I136
tp92
a(I216
I136
tp93
a(I220
I136
tp94
a(I224
I136
tp95
a(I228
I136
tp96
a(I231
I135
tp97
a(I235
I134
tp98
a(I239
I133
tp99
a(I242
I131
tp100
a(I246
I129
tp101
a(I249
I127
tp102
a(I252
I124
tp103
a(I256
I120
tp104
a(I259
I116
tp105
a(I261
I113
tp106
a(I263
I109
tp107
a(I265
I106
tp108
a(I268
I103
tp109
a(I270
I99
tp110
a(I272
I95
tp111
a(I274
I89
tp112
a(I276
I85
tp113
a(I278
I80
tp114
a(I279
I76
tp115
a(I280
I72
tp116
a(I280
I69
tp117
a(I281
I66
tp118
a(I281
I65
tp119
a(I281
I63
tp120
a(I281
I62
tp121
a(I281
I61
tp122
a(I281
I60
tp123
a(I281
I59
tp124
a(I281
I59
tp125
a(I281
I58
tp126
a(I281
I58
tp127
aa(lp128
(I299
I82
tp129
a(I298
I83
tp130
a(I296
I85
tp131
a(I294
I88
tp132
a(I293
I92
tp133
a(I291
I97
tp134
a(I291
I103
tp135
a(I290
I108
tp136
a(I290
I112
tp137
a(I290
I116
tp138
a(I290
I120
tp139
a(I291
I123
tp140
a(I291
I127
tp141
a(I292
I131
tp142
a(I293
I135
tp143
a(I294
I139
tp144
a(I295
I143
tp145
a(I296
I146
tp146
a(I297
I148
tp147
a(I298
I151
tp148
a(I300
I153
tp149
a(I301
I154
tp150
a(I303
I156
tp151
a(I305
I157
tp152
a(I308
I160
tp153
a(I312
I161
tp154
a(I316
I162
tp155
a(I321
I163
tp156
a(I326
I164
tp157
a(I333
I164
tp158
a(I340
I164
tp159
a(I347
I163
tp160
a(I353
I161
tp161
a(I359
I160
tp162
a(I364
I158
tp163
a(I369
I156
tp164
a(I374
I154
tp165
a(I377
I152
tp166
a(I380
I150
tp167
a(I383
I148
tp168
a(I385
I147
tp169
a(I386
I146
tp170
a(I388
I144
tp171
a(I389
I143
tp172
a(I391
I141
tp173
a(I392
I140
tp174
a(I392
I139
tp175
a(I393
I138
tp176
a(I393
I137
tp177
a(I394
I136
tp178
a(I394
I135
tp179
a(I394
I134
tp180
a(I394
I132
tp181
a(I395
I129
tp182
a(I395
I126
tp183
a(I395
I124
tp184
aa(lp185
(I334
I91
tp186
a(I338
I88
tp187
a(I343
I86
tp188
a(I348
I83
tp189
a(I352
I81
tp190
a(I356
I79
tp191
a(I360
I77
tp192
a(I365
I75
tp193
a(I369
I74
tp194
a(I373
I73
tp195
a(I378
I72
tp196
a(I381
I71
tp197
a(I385
I71
tp198
a(I389
I71
tp199
a(I392
I71
tp200
a(I395
I71
tp201
a(I398
I71
tp202
a(I401
I71
tp203
a(I403
I72
tp204
a(I406
I72
tp205
a(I409
I73
tp206
a(I412
I73
tp207
a(I414
I74
tp208
a(I417
I75
tp209
a(I420
I76
tp210
a(I422
I77
tp211
a(I425
I78
tp212
a(I428
I80
tp213
a(I430
I81
tp214
a(I433
I83
tp215
a(I435
I85
tp216
a(I440
I88
tp217
a(I442
I89
tp218
a(I444
I90
tp219
a(I446
I91
tp220
a(I448
I93
tp221
a(I449
I94
tp222
a(I451
I96
tp223
a(I453
I97
tp224
a(I454
I99
tp225
a(I456
I101
tp226
a(I457
I103
tp227
a(I458
I106
tp228
a(I459
I109
tp229
a(I460
I112
tp230
a(I460
I115
tp231
a(I460
I118
tp232
a(I460
I121
tp233
a(I460
I124
tp234
a(I459
I127
tp235
a(I458
I128
tp236
a(I457
I130
tp237
a(I456
I131
tp238
a(I455
I132
tp239
a(I454
I133
tp240
a(I452
I135
tp241
a(I451
I136
tp242
a(I449
I137
tp243
a(I446
I138
tp244
a(I444
I139
tp245
a(I441
I140
tp246
a(I438
I141
tp247
a(I433
I141
tp248
a(I429
I142
tp249
a(I424
I142
tp250
a(I419
I142
tp251
a(I414
I142
tp252
a(I410
I142
tp253
a(I406
I142
tp254
a(I403
I142
tp255
a(I401
I142
tp256
a(I398
I141
tp257
a(I397
I141
tp258
a(I395
I141
tp259
a(I394
I141
tp260
a(I393
I141
tp261
a(I392
I141
tp262
a(I392
I141
tp263
a(I391
I141
tp264
a(I391
I141
tp265
a(I390
I141
tp266
a(I390
I141
tp267
aa(lp268
(I393
I81
tp269
a(I394
I78
tp270
a(I396
I77
tp271
a(I398
I75
tp272
a(I399
I74
tp273
a(I401
I72
tp274
a(I403
I71
tp275
a(I405
I69
tp276
a(I407
I67
tp277
a(I408
I66
tp278
a(I410
I65
tp279
a(I412
I64
tp280
a(I414
I63
tp281
a(I416
I62
tp282
a(I418
I61
tp283
a(I420
I59
tp284
a(I422
I59
tp285
a(I424
I58
tp286
a(I427
I57
tp287
a(I430
I57
tp288
a(I432
I57
tp289
a(I435
I57
tp290
a(I438
I57
tp291
a(I440
I57
tp292
a(I442
I57
tp293
a(I444
I57
tp294
a(I446
I58
tp295
a(I448
I58
tp296
a(I449
I59
tp297
a(I450
I59
tp298
a(I451
I60
tp299
a(I452
I61
tp300
a(I453
I61
tp301
a(I454
I62
tp302
a(I456
I62
tp303
a(I457
I63
tp304
a(I458
I63
tp305
a(I459
I64
tp306
a(I460
I64
tp307
a(I461
I65
tp308
a(I462
I65
tp309
a(I463
I66
tp310
a(I464
I67
tp311
a(I465
I68
tp312
a(I466
I69
tp313
a(I467
I71
tp314
a(I467
I73
tp315
a(I468
I75
tp316
a(I468
I76
tp317
a(I469
I78
tp318
a(I469
I81
tp319
a(I469
I83
tp320
a(I469
I86
tp321
a(I469
I88
tp322
a(I469
I90
tp323
a(I469
I92
tp324
a(I468
I94
tp325
a(I468
I96
tp326
a(I467
I97
tp327
a(I466
I98
tp328
a(I464
I99
tp329
a(I463
I100
tp330
a(I462
I101
tp331
a(I461
I103
tp332
a(I459
I104
tp333
a(I456
I105
tp334
a(I452
I105
tp335
a(I449
I106
tp336
a(I445
I106
tp337
a(I441
I107
tp338
a(I439
I107
tp339
a(I436
I107
tp340
a(I432
I107
tp341
a(I430
I107
tp342
a(I427
I107
tp343
a(I425
I107
tp344
a(I422
I107
tp345
a(I420
I106
tp346
a(I418
I106
tp347
a(I416
I105
tp348
a(I414
I105
tp349
a(I412
I104
tp350
a(I411
I104
tp351
a(I409
I103
tp352
a(I408
I103
tp353
a(I407
I102
tp354
a(I406
I101
tp355
a(I405
I100
tp356
a(I404
I99
tp357
a(I403
I98
tp358
a(I402
I97
tp359
a(I401
I96
tp360
a(I400
I95
tp361
a(I399
I94
tp362
a(I398
I93
tp363
a(I397
I93
tp364
a(I397
I92
tp365
a(I396
I92
tp366
a(I396
I91
tp367
a(I396
I91
tp368
a(I396
I90
tp369
aa(lp370
(I115
I98
tp371
a(I118
I95
tp372
a(I121
I92
tp373
a(I124
I88
tp374
a(I127
I84
tp375
a(I130
I81
tp376
a(I133
I76
tp377
a(I136
I72
tp378
a(I140
I68
tp379
a(I142
I65
tp380
a(I145
I62
tp381
a(I148
I60
tp382
a(I152
I56
tp383
a(I155
I54
tp384
a(I159
I52
tp385
a(I162
I51
tp386
a(I165
I50
tp387
a(I168
I49
tp388
a(I171
I49
tp389
a(I173
I49
tp390
a(I176
I49
tp391
a(I179
I50
tp392
a(I183
I51
tp393
a(I187
I54
tp394
a(I193
I57
tp395
a(I198
I61
tp396
a(I204
I64
tp397
a(I208
I66
tp398
a(I213
I69
tp399
a(I216
I72
tp400
a(I220
I74
tp401
a(I222
I76
tp402
a(I225
I78
tp403
a(I228
I80
tp404
a(I230
I83
tp405
a(I232
I86
tp406
a(I235
I89
tp407
a(I236
I93
tp408
a(I238
I96
tp409
a(I239
I100
tp410
a(I240
I103
tp411
a(I241
I106
tp412
a(I241
I108
tp413
a(I241
I111
tp414
a(I241
I114
tp415
a(I241
I116
tp416
a(I241
I118
tp417
a(I241
I121
tp418
a(I240
I123
tp419
a(I240
I126
tp420
a(I238
I129
tp421
a(I237
I132
tp422
a(I236
I135
tp423
a(I235
I137
tp424
a(I234
I141
tp425
a(I232
I143
tp426
a(I230
I145
tp427
a(I227
I148
tp428
a(I224
I151
tp429
a(I221
I153
tp430
a(I217
I155
tp431
a(I214
I156
tp432
a(I210
I157
tp433
a(I206
I157
tp434
a(I203
I158
tp435
a(I199
I158
tp436
a(I194
I158
tp437
a(I190
I158
tp438
a(I184
I157
tp439
a(I179
I156
tp440
a(I174
I155
tp441
a(I170
I153
tp442
a(I166
I152
tp443
a(I162
I150
tp444
a(I158
I148
tp445
a(I156
I147
tp446
a(I153
I146
tp447
a(I151
I144
tp448
a(I150
I143
tp449
a(I148
I142
tp450
a(I146
I141
tp451
a(I145
I140
tp452
a(I144
I138
tp453
a(I143
I137
tp454
a(I142
I136
tp455
a(I141
I135
tp456
a(I140
I133
tp457
a(I138
I132
tp458
a(I137
I129
tp459
a(I136
I127
tp460
a(I136
I124
tp461
a(I135
I122
tp462
a(I135
I120
tp463
a(I135
I119
tp464
a(I135
I117
tp465
a(I135
I116
tp466
a(I135
I115
tp467
a(I135
I115
tp468
a(I135
I114
tp469
a(I135
I114
tp470
aa(lp471
a.