(ccopy_reg
_reconstructor
p0
(cgraph
Graph
p1
c__builtin__
object
p2
Ntp3
Rp4
(dp5
S'_Graph__graph_dict'
p6
(dp7
I0
(lp8
sI1
(lp9
sI2
(lp10
sI3
(lp11
sI4
(lp12
sI5
(lp13
sI6
(lp14
sI7
(lp15
sI8
(lp16
sI9
(lp17
sI10
(lp18
sI11
(lp19
sI12
(lp20
I18
asI13
(lp21
sI14
(lp22
sI15
(lp23
sI16
(lp24
sI17
(lp25
sI18
(lp26
I12
asI19
(lp27
sI20
(lp28
sI21
(lp29
sI22
(lp30
sI23
(lp31
sI24
(lp32
ssb(igrid
Grid
p33
(dp34
S'rows'
p35
I5
sS'cols'
p36
I5
sS'graph'
p37
g4
sS'grid'
p38
(dp39
I0
(lp40
I0
aI0
asI1
(lp41
I0
aI4
asI2
(lp42
I0
aI1
asI3
(lp43
I4
aI0
asI4
(lp44
I1
aI0
asI5
(lp45
I0
aI3
asI6
(lp46
I0
aI2
asI7
(lp47
I3
aI0
asI8
(lp48
I2
aI0
asI9
(lp49
I4
aI4
asI10
(lp50
I1
aI4
asI11
(lp51
I4
aI1
asI12
(lp52
I1
aI1
asI13
(lp53
I3
aI4
asI14
(lp54
I2
aI4
asI15
(lp55
I4
aI3
asI16
(lp56
I1
aI3
asI17
(lp57
I4
aI2
asI18
(lp58
I1
aI2
asI19
(lp59
I3
aI1
asI20
(lp60
I2
aI1
asI21
(lp61
I3
aI3
asI22
(lp62
I2
aI3
asI23
(lp63
I3
aI2
asI24
(lp64
I2
aI2
assbtp65
.