(lp0
(isilly
Glyph
p1
(dp2
S'id'
p3
S'<'
p4
sS'paths'
p5
S'.012:'
p6
sS'points'
p7
((I2
I0
I1
tp8
(I0
I2
I1
tp9
(I2
I4
I1
tp10
tp11
sba(isilly
Glyph
p12
(dp13
S'id'
p14
S'a'
p15
sS'paths'
p16
S'.012345:'
p17
sS'points'
p18
((I0
I4
I1
tp19
(I4
I4
I1
tp20
(I4
I0
I1
tp21
(I1
I0
I1
tp22
(I0
I2
I1
tp23
(F3.5
I2
I1
tp24
tp25
sba.