(lp0
(ipoly
Poly
p1
(dp2
S'closed'
p3
I00
sS'lw'
p4
I5
sS'id'
p5
I0
sS'pts'
p6
(lp7
(I0
I7
I0
tp8
a(I0
I-1
I1
tp9
a(I4
I-1
I1
tp10
a(I4
I7
I0
tp11
asS'holes'
p12
(lp13
(lp14
asba(ipoly
Poly
p15
(dp16
S'closed'
p17
I01
sS'lw'
p18
I1
sS'id'
p19
I1
sS'pts'
p20
(lp21
(I-2
I2
I0
tp22
a(I-3
I2
I0
tp23
a(I-3
I-1
I0
tp24
a(I-9
I-1
I0
tp25
a(I-9
I2
I0
tp26
a(I-10
I2
I0
tp27
a(I-10
I-1
I0
tp28
a(I-10
I-3
I0
tp29
a(I-6
I-7
I0
tp30
a(I-2
I-3
I0
tp31
asS'holes'
p32
(lp33
(lp34
(I-3
I-2
I0
tp35
a(I-6
I-5
I1
tp36
a(I-9
I-2
I0
tp37
aasba(ipoly
Poly
p38
(dp39
S'closed'
p40
I00
sS'lw'
p41
I5
sS'id'
p42
I2
sS'pts'
p43
(lp44
sS'holes'
p45
(lp46
(lp47
asba(ipoly
Poly
p48
(dp49
S'closed'
p50
I00
sS'lw'
p51
I5
sS'id'
p52
I3
sS'pts'
p53
(lp54
(I0
I3
I0
tp55
a(I4
I3
I0
tp56
asS'holes'
p57
(lp58
(lp59
asba.