(igrid
Grid
p0
(dp1
S'graph'
p2
ccopy_reg
_reconstructor
p3
(cgraph
Graph
p4
c__builtin__
object
p5
Ntp6
Rp7
(dp8
S'_Graph__graph_dict'
p9
(dp10
I0
(lp11
I85
asI1
(lp12
I67
asI2
(lp13
I75
aI67
aI85
asI3
(lp14
I56
aI22
aI62
asI4
(lp15
I65
aI46
asI5
(lp16
I96
aI84
asI6
(lp17
I50
aI23
asI7
(lp18
I64
asI8
(lp19
I94
aI21
aI59
asI9
(lp20
I69
aI49
aI97
asI10
(lp21
I29
aI31
aI82
asI11
(lp22
I21
aI16
asI12
(lp23
I67
asI13
(lp24
I31
asI14
(lp25
I47
asI15
(lp26
I52
asI16
(lp27
I11
aI83
asI17
(lp28
I26
asI18
(lp29
I64
asI19
(lp30
I63
asI20
(lp31
I60
aI80
asI21
(lp32
I11
aI8
asI22
(lp33
I3
asI23
(lp34
I6
aI28
aI55
aI78
asI24
(lp35
I75
asI25
(lp36
I26
aI71
asI26
(lp37
I17
aI25
aI93
asI27
(lp38
I81
asI28
(lp39
I23
asI29
(lp40
I10
aI68
asI30
(lp41
I42
asI31
(lp42
I13
aI10
asI32
(lp43
I60
asI33
(lp44
I91
aI40
asI34
(lp45
I75
asI35
(lp46
I76
aI54
aI75
asI36
(lp47
I88
aI51
asI37
(lp48
I66
aI96
asI38
(lp49
I96
aI98
asI39
(lp50
I79
aI72
asI40
(lp51
I33
aI53
asI41
(lp52
I77
asI42
(lp53
I30
aI55
aI48
aI94
asI43
(lp54
I86
asI44
(lp55
I58
asI45
(lp56
I98
aI58
asI46
(lp57
I4
asI47
(lp58
I14
aI60
asI48
(lp59
I42
asI49
(lp60
I9
aI56
asI50
(lp61
I6
aI95
aI69
asI51
(lp62
I36
aI89
asI52
(lp63
I15
aI79
aI73
aI87
asI53
(lp64
I40
aI74
asI54
(lp65
I35
asI55
(lp66
I42
aI23
asI56
(lp67
I3
aI49
asI57
(lp68
I75
asI58
(lp69
I44
aI45
asI59
(lp70
I8
asI60
(lp71
I20
aI32
aI47
aI65
asI61
(lp72
I80
asI62
(lp73
I3
asI63
(lp74
I19
aI81
asI64
(lp75
I7
aI18
aI85
asI65
(lp76
I4
aI60
aI68
asI66
(lp77
I37
asI67
(lp78
I1
aI12
aI2
asI68
(lp79
I29
aI65
aI71
asI69
(lp80
I9
aI50
asI70
(lp81
I72
asI71
(lp82
I68
aI25
asI72
(lp83
I70
aI39
asI73
(lp84
I52
asI74
(lp85
I53
asI75
(lp86
I2
aI24
aI34
aI57
aI35
asI76
(lp87
I35
aI93
aI81
asI77
(lp88
I41
aI91
aI88
asI78
(lp89
I23
aI90
asI79
(lp90
I39
aI52
aI95
aI91
asI80
(lp91
I61
aI20
aI95
asI81
(lp92
I27
aI63
aI76
asI82
(lp93
I10
asI83
(lp94
I16
aI99
asI84
(lp95
I5
asI85
(lp96
I0
aI64
aI2
asI86
(lp97
I43
aI91
asI87
(lp98
I52
asI88
(lp99
I36
aI77
asI89
(lp100
I51
asI90
(lp101
I78
asI91
(lp102
I33
aI77
aI86
aI79
asI92
(lp103
I93
asI93
(lp104
I26
aI76
aI92
aI96
asI94
(lp105
I8
aI42
asI95
(lp106
I50
aI79
aI80
asI96
(lp107
I5
aI38
aI93
aI37
asI97
(lp108
I9
asI98
(lp109
I45
aI38
asI99
(lp110
I83
assbsS'grid'
p111
(dp112
I0
(lp113
F451.0
aF941.0
aF9.8
asI1
(lp114
F353.0
aF255.0
aF9.8
asI2
(lp115
F549.0
aF255.0
aF29.400000000000002
asI3
(lp116
F843.0
aF59.0
aF29.400000000000002
asI4
(lp117
F843.0
aF451.0
aF19.6
asI5
(lp118
F59.0
aF549.0
aF19.6
asI6
(lp119
F157.0
aF647.0
aF19.6
asI7
(lp120
F549.0
aF941.0
aF9.8
asI8
(lp121
F941.0
aF941.0
aF29.400000000000002
asI9
(lp122
F255.0
aF255.0
aF29.400000000000002
asI10
(lp123
F941.0
aF353.0
aF29.400000000000002
asI11
(lp124
F647.0
aF941.0
aF19.6
asI12
(lp125
F451.0
aF157.0
aF9.8
asI13
(lp126
F941.0
aF549.0
aF9.8
asI14
(lp127
F353.0
aF745.0
aF9.8
asI15
(lp128
F549.0
aF353.0
aF9.8
asI16
(lp129
F353.0
aF941.0
aF19.6
asI17
(lp130
F451.0
aF451.0
aF9.8
asI18
(lp131
F647.0
aF843.0
aF9.8
asI19
(lp132
F157.0
aF59.0
aF9.8
asI20
(lp133
F353.0
aF451.0
aF19.6
asI21
(lp134
F843.0
aF941.0
aF19.6
asI22
(lp135
F941.0
aF157.0
aF9.8
asI23
(lp136
F157.0
aF745.0
aF39.2
asI24
(lp137
F745.0
aF157.0
aF9.8
asI25
(lp138
F647.0
aF255.0
aF19.6
asI26
(lp139
F451.0
aF353.0
aF29.400000000000002
asI27
(lp140
F353.0
aF59.0
aF9.8
asI28
(lp141
F59.0
aF745.0
aF9.8
asI29
(lp142
F843.0
aF353.0
aF19.6
asI30
(lp143
F745.0
aF745.0
aF9.8
asI31
(lp144
F941.0
aF451.0
aF19.6
asI32
(lp145
F647.0
aF353.0
aF9.8
asI33
(lp146
F647.0
aF647.0
aF19.6
asI34
(lp147
F843.0
aF157.0
aF9.8
asI35
(lp148
F549.0
aF157.0
aF29.400000000000002
asI36
(lp149
F647.0
aF745.0
aF19.6
asI37
(lp150
F157.0
aF451.0
aF19.6
asI38
(lp151
F59.0
aF353.0
aF19.6
asI39
(lp152
F647.0
aF549.0
aF19.6
asI40
(lp153
F745.0
aF647.0
aF19.6
asI41
(lp154
F353.0
aF843.0
aF9.8
asI42
(lp155
F843.0
aF745.0
aF39.2
asI43
(lp156
F157.0
aF843.0
aF9.8
asI44
(lp157
F59.0
aF59.0
aF9.8
asI45
(lp158
F59.0
aF157.0
aF19.6
asI46
(lp159
F843.0
aF255.0
aF9.8
asI47
(lp160
F549.0
aF451.0
aF19.6
asI48
(lp161
F941.0
aF745.0
aF9.8
asI49
(lp162
F451.0
aF59.0
aF19.6
asI50
(lp163
F157.0
aF549.0
aF29.400000000000002
asI51
(lp164
F745.0
aF843.0
aF19.6
asI52
(lp165
F549.0
aF549.0
aF39.2
asI53
(lp166
F843.0
aF647.0
aF19.6
asI54
(lp167
F549.0
aF59.0
aF9.8
asI55
(lp168
F255.0
aF745.0
aF19.6
asI56
(lp169
F745.0
aF59.0
aF19.6
asI57
(lp170
F647.0
aF59.0
aF9.8
asI58
(lp171
F157.0
aF157.0
aF19.6
asI59
(lp172
F941.0
aF843.0
aF9.8
asI60
(lp173
F647.0
aF451.0
aF39.2
asI61
(lp174
F255.0
aF647.0
aF9.8
asI62
(lp175
F941.0
aF59.0
aF9.8
asI63
(lp176
F255.0
aF59.0
aF19.6
asI64
(lp177
F549.0
aF843.0
aF29.400000000000002
asI65
(lp178
F745.0
aF451.0
aF29.400000000000002
asI66
(lp179
F157.0
aF353.0
aF9.8
asI67
(lp180
F451.0
aF255.0
aF29.400000000000002
asI68
(lp181
F745.0
aF353.0
aF29.400000000000002
asI69
(lp182
F255.0
aF451.0
aF19.6
asI70
(lp183
F843.0
aF549.0
aF9.8
asI71
(lp184
F745.0
aF255.0
aF19.6
asI72
(lp185
F745.0
aF549.0
aF19.6
asI73
(lp186
F549.0
aF647.0
aF9.8
asI74
(lp187
F941.0
aF647.0
aF9.8
asI75
(lp188
F647.0
aF157.0
aF49.0
asI76
(lp189
F353.0
aF157.0
aF29.400000000000002
asI77
(lp190
F451.0
aF745.0
aF29.400000000000002
asI78
(lp191
F59.0
aF843.0
aF19.6
asI79
(lp192
F353.0
aF647.0
aF39.2
asI80
(lp193
F353.0
aF549.0
aF29.400000000000002
asI81
(lp194
F255.0
aF157.0
aF29.400000000000002
asI82
(lp195
F941.0
aF255.0
aF9.8
asI83
(lp196
F255.0
aF941.0
aF19.6
asI84
(lp197
F59.0
aF647.0
aF9.8
asI85
(lp198
F451.0
aF843.0
aF29.400000000000002
asI86
(lp199
F255.0
aF843.0
aF19.6
asI87
(lp200
F451.0
aF549.0
aF9.8
asI88
(lp201
F549.0
aF745.0
aF19.6
asI89
(lp202
F745.0
aF941.0
aF9.8
asI90
(lp203
F59.0
aF941.0
aF9.8
asI91
(lp204
F451.0
aF647.0
aF39.2
asI92
(lp205
F353.0
aF353.0
aF9.8
asI93
(lp206
F255.0
aF353.0
aF39.2
asI94
(lp207
F843.0
aF843.0
aF19.6
asI95
(lp208
F255.0
aF549.0
aF29.400000000000002
asI96
(lp209
F59.0
aF451.0
aF39.2
asI97
(lp210
F157.0
aF255.0
aF9.8
asI98
(lp211
F59.0
aF255.0
aF19.6
asI99
(lp212
F157.0
aF941.0
aF9.8
assb.