(ccopy_reg
_reconstructor
p0
(cgraph
Graph
p1
c__builtin__
object
p2
Ntp3
Rp4
(dp5
S'_Graph__graph_dict'
p6
(dp7
I0
(lp8
I54
aI50
aI57
asI1
(lp9
I53
asI2
(lp10
I24
aI75
asI3
(lp11
I63
aI31
asI4
(lp12
I6
aI73
asI5
(lp13
I31
aI82
asI6
(lp14
I4
aI69
asI7
(lp15
I93
aI87
asI8
(lp16
I84
aI18
aI64
asI9
(lp17
I88
aI24
aI32
asI10
(lp18
I30
aI76
asI11
(lp19
I28
aI22
aI29
asI12
(lp20
I93
asI13
(lp21
I67
aI79
asI14
(lp22
I78
aI88
asI15
(lp23
I70
asI16
(lp24
I66
aI27
aI89
asI17
(lp25
I23
aI47
asI18
(lp26
I8
asI19
(lp27
I82
aI95
asI20
(lp28
I54
asI21
(lp29
I55
aI65
aI72
asI22
(lp30
I11
asI23
(lp31
I17
aI37
asI24
(lp32
I2
aI9
asI25
(lp33
I66
asI26
(lp34
I94
aI67
aI91
asI27
(lp35
I16
aI94
asI28
(lp36
I11
aI63
aI37
asI29
(lp37
I11
asI30
(lp38
I10
aI51
aI59
aI74
asI31
(lp39
I5
aI3
aI62
asI32
(lp40
I9
aI81
asI33
(lp41
I36
aI48
aI99
asI34
(lp42
I66
aI63
asI35
(lp43
I59
aI84
asI36
(lp44
I33
aI86
aI45
asI37
(lp45
I23
aI28
aI92
asI38
(lp46
I96
aI66
asI39
(lp47
I94
asI40
(lp48
I43
asI41
(lp49
I66
asI42
(lp50
I43
asI43
(lp51
I40
aI42
aI78
asI44
(lp52
I84
aI61
asI45
(lp53
I36
asI46
(lp54
I70
asI47
(lp55
I17
aI60
aI69
asI48
(lp56
I33
asI49
(lp57
I92
asI50
(lp58
I0
aI68
asI51
(lp59
I30
aI87
asI52
(lp60
I79
asI53
(lp61
I1
aI88
asI54
(lp62
I0
aI20
aI84
asI55
(lp63
I21
aI97
aI83
asI56
(lp64
I89
asI57
(lp65
I0
asI58
(lp66
I96
asI59
(lp67
I35
aI30
asI60
(lp68
I47
asI61
(lp69
I44
asI62
(lp70
I31
asI63
(lp71
I3
aI28
aI34
asI64
(lp72
I8
asI65
(lp73
I21
asI66
(lp74
I16
aI25
aI34
aI41
aI38
asI67
(lp75
I13
aI26
asI68
(lp76
I50
aI70
asI69
(lp77
I6
aI47
aI85
asI70
(lp78
I15
aI46
aI68
aI86
asI71
(lp79
I93
aI96
asI72
(lp80
I21
asI73
(lp81
I4
asI74
(lp82
I30
asI75
(lp83
I2
aI77
aI93
asI76
(lp84
I10
asI77
(lp85
I75
asI78
(lp86
I14
aI43
asI79
(lp87
I52
aI13
asI80
(lp88
I88
asI81
(lp89
I32
asI82
(lp90
I19
aI5
asI83
(lp91
I55
asI84
(lp92
I8
aI44
aI54
aI35
asI85
(lp93
I69
asI86
(lp94
I36
aI70
asI87
(lp95
I51
aI7
asI88
(lp96
I9
aI53
aI80
aI14
aI97
asI89
(lp97
I56
aI16
aI90
asI90
(lp98
I89
asI91
(lp99
I26
asI92
(lp100
I49
aI37
asI93
(lp101
I7
aI12
aI71
aI75
aI98
asI94
(lp102
I26
aI39
aI27
asI95
(lp103
I19
asI96
(lp104
I38
aI58
aI71
asI97
(lp105
I55
aI88
asI98
(lp106
I93
asI99
(lp107
I33
assb(igrid
Grid
p108
(dp109
S'graph'
p110
g4
sS'grid'
p111
(dp112
I0
(lp113
F549.0
aF255.0
aF29.400000000000002
asI1
(lp114
F59.0
aF647.0
aF9.8
asI2
(lp115
F255.0
aF255.0
aF19.6
asI3
(lp116
F745.0
aF843.0
aF19.6
asI4
(lp117
F843.0
aF941.0
aF19.6
asI5
(lp118
F941.0
aF843.0
aF19.6
asI6
(lp119
F745.0
aF941.0
aF19.6
asI7
(lp120
F59.0
aF157.0
aF19.6
asI8
(lp121
F157.0
aF745.0
aF29.400000000000002
asI9
(lp122
F255.0
aF549.0
aF29.400000000000002
asI10
(lp123
F451.0
aF157.0
aF19.6
asI11
(lp124
F745.0
aF549.0
aF29.400000000000002
asI12
(lp125
F157.0
aF157.0
aF9.8
asI13
(lp126
F843.0
aF157.0
aF19.6
asI14
(lp127
F157.0
aF549.0
aF19.6
asI15
(lp128
F549.0
aF59.0
aF9.8
asI16
(lp129
F647.0
aF353.0
aF29.400000000000002
asI17
(lp130
F451.0
aF843.0
aF19.6
asI18
(lp131
F157.0
aF843.0
aF9.8
asI19
(lp132
F941.0
aF647.0
aF19.6
asI20
(lp133
F549.0
aF353.0
aF9.8
asI21
(lp134
F451.0
aF745.0
aF29.400000000000002
asI22
(lp135
F843.0
aF549.0
aF9.8
asI23
(lp136
F549.0
aF843.0
aF19.6
asI24
(lp137
F255.0
aF451.0
aF19.6
asI25
(lp138
F549.0
aF647.0
aF9.8
asI26
(lp139
F941.0
aF255.0
aF29.400000000000002
asI27
(lp140
F745.0
aF451.0
aF19.6
asI28
(lp141
F647.0
aF647.0
aF29.400000000000002
asI29
(lp142
F745.0
aF647.0
aF9.8
asI30
(lp143
F353.0
aF157.0
aF39.2
asI31
(lp144
F843.0
aF843.0
aF29.400000000000002
asI32
(lp145
F59.0
aF745.0
aF19.6
asI33
(lp146
F843.0
aF353.0
aF29.400000000000002
asI34
(lp147
F647.0
aF549.0
aF19.6
asI35
(lp148
F255.0
aF353.0
aF19.6
asI36
(lp149
F843.0
aF255.0
aF29.400000000000002
asI37
(lp150
F647.0
aF745.0
aF29.400000000000002
asI38
(lp151
F549.0
aF549.0
aF19.6
asI39
(lp152
F941.0
aF549.0
aF9.8
asI40
(lp153
F59.0
aF353.0
aF9.8
asI41
(lp154
F549.0
aF451.0
aF9.8
asI42
(lp155
F157.0
aF451.0
aF9.8
asI43
(lp156
F59.0
aF451.0
aF29.400000000000002
asI44
(lp157
F353.0
aF549.0
aF19.6
asI45
(lp158
F745.0
aF255.0
aF9.8
asI46
(lp159
F745.0
aF59.0
aF9.8
asI47
(lp160
F549.0
aF941.0
aF29.400000000000002
asI48
(lp161
F745.0
aF353.0
aF9.8
asI49
(lp162
F255.0
aF941.0
aF9.8
asI50
(lp163
F549.0
aF157.0
aF19.6
asI51
(lp164
F157.0
aF59.0
aF19.6
asI52
(lp165
F941.0
aF59.0
aF9.8
asI53
(lp166
F157.0
aF647.0
aF19.6
asI54
(lp167
F451.0
aF451.0
aF29.400000000000002
asI55
(lp168
F255.0
aF843.0
aF29.400000000000002
asI56
(lp169
F451.0
aF255.0
aF9.8
asI57
(lp170
F647.0
aF255.0
aF9.8
asI58
(lp171
F451.0
aF647.0
aF9.8
asI59
(lp172
F353.0
aF255.0
aF19.6
asI60
(lp173
F451.0
aF941.0
aF9.8
asI61
(lp174
F353.0
aF647.0
aF9.8
asI62
(lp175
F843.0
aF745.0
aF9.8
asI63
(lp176
F745.0
aF745.0
aF29.400000000000002
asI64
(lp177
F59.0
aF941.0
aF9.8
asI65
(lp178
F549.0
aF745.0
aF9.8
asI66
(lp179
F647.0
aF451.0
aF49.0
asI67
(lp180
F941.0
aF157.0
aF19.6
asI68
(lp181
F647.0
aF157.0
aF19.6
asI69
(lp182
F647.0
aF941.0
aF29.400000000000002
asI70
(lp183
F647.0
aF59.0
aF39.2
asI71
(lp184
F157.0
aF353.0
aF19.6
asI72
(lp185
F353.0
aF843.0
aF9.8
asI73
(lp186
F941.0
aF941.0
aF9.8
asI74
(lp187
F353.0
aF59.0
aF9.8
asI75
(lp188
F255.0
aF157.0
aF29.400000000000002
asI76
(lp189
F451.0
aF59.0
aF9.8
asI77
(lp190
F255.0
aF59.0
aF9.8
asI78
(lp191
F59.0
aF549.0
aF19.6
asI79
(lp192
F843.0
aF59.0
aF19.6
asI80
(lp193
F353.0
aF745.0
aF9.8
asI81
(lp194
F59.0
aF843.0
aF9.8
asI82
(lp195
F941.0
aF745.0
aF19.6
asI83
(lp196
F157.0
aF941.0
aF9.8
asI84
(lp197
F353.0
aF451.0
aF39.2
asI85
(lp198
F647.0
aF843.0
aF9.8
asI86
(lp199
F745.0
aF157.0
aF19.6
asI87
(lp200
F59.0
aF59.0
aF19.6
asI88
(lp201
F255.0
aF647.0
aF49.0
asI89
(lp202
F451.0
aF353.0
aF29.400000000000002
asI90
(lp203
F353.0
aF353.0
aF9.8
asI91
(lp204
F941.0
aF353.0
aF9.8
asI92
(lp205
F353.0
aF941.0
aF19.6
asI93
(lp206
F157.0
aF255.0
aF49.0
asI94
(lp207
F941.0
aF451.0
aF29.400000000000002
asI95
(lp208
F843.0
aF647.0
aF9.8
asI96
(lp209
F451.0
aF549.0
aF29.400000000000002
asI97
(lp210
F255.0
aF745.0
aF19.6
asI98
(lp211
F59.0
aF255.0
aF9.8
asI99
(lp212
F843.0
aF451.0
aF9.8
assbtp213
.