(igrid
Grid
p0
(dp1
S'graph'
p2
ccopy_reg
_reconstructor
p3
(cgraph
Graph
p4
c__builtin__
object
p5
Ntp6
Rp7
(dp8
S'_Graph__graph_dict'
p9
(dp10
I0
(lp11
I12
asI1
(lp12
I18
aI22
aI73
asI2
(lp13
I65
asI3
(lp14
I32
asI4
(lp15
I88
asI5
(lp16
I54
asI6
(lp17
I46
asI7
(lp18
I90
asI8
(lp19
I60
asI9
(lp20
I29
asI10
(lp21
I25
aI11
asI11
(lp22
I10
aI69
asI12
(lp23
I0
aI74
aI26
aI77
asI13
(lp24
I42
aI16
asI14
(lp25
I16
aI85
asI15
(lp26
I88
asI16
(lp27
I14
aI13
aI41
asI17
(lp28
I72
aI34
aI95
asI18
(lp29
I1
aI48
asI19
(lp30
I78
asI20
(lp31
I83
asI21
(lp32
I77
aI71
asI22
(lp33
I1
asI23
(lp34
I99
aI75
aI94
asI24
(lp35
I93
asI25
(lp36
I10
aI72
asI26
(lp37
I12
aI38
asI27
(lp38
I36
aI51
aI52
aI72
asI28
(lp39
I54
asI29
(lp40
I9
aI83
aI39
aI87
asI30
(lp41
I85
aI55
aI99
asI31
(lp42
I47
asI32
(lp43
I3
aI48
asI33
(lp44
I72
aI56
asI34
(lp45
I17
aI61
aI90
asI35
(lp46
I63
asI36
(lp47
I27
aI45
aI86
asI37
(lp48
I52
aI82
asI38
(lp49
I26
aI40
asI39
(lp50
I29
aI80
asI40
(lp51
I38
asI41
(lp52
I16
asI42
(lp53
I13
aI97
asI43
(lp54
I73
asI44
(lp55
I81
aI57
asI45
(lp56
I36
aI85
aI65
aI76
aI83
asI46
(lp57
I6
aI91
aI48
asI47
(lp58
I31
aI83
aI93
asI48
(lp59
I18
aI32
aI46
asI49
(lp60
I85
asI50
(lp61
I92
asI51
(lp62
I27
asI52
(lp63
I37
aI27
asI53
(lp64
I83
asI54
(lp65
I5
aI28
aI61
asI55
(lp66
I30
asI56
(lp67
I33
asI57
(lp68
I44
aI91
asI58
(lp69
I99
aI81
asI59
(lp70
I66
asI60
(lp71
I8
aI68
asI61
(lp72
I54
aI34
asI62
(lp73
I85
asI63
(lp74
I35
aI86
aI98
asI64
(lp75
I76
asI65
(lp76
I2
aI45
asI66
(lp77
I59
aI92
asI67
(lp78
I97
asI68
(lp79
I60
aI72
asI69
(lp80
I11
asI70
(lp81
I72
asI71
(lp82
I21
asI72
(lp83
I17
aI25
aI33
aI68
aI70
aI27
asI73
(lp84
I43
aI1
aI88
asI74
(lp85
I12
aI86
asI75
(lp86
I23
asI76
(lp87
I64
aI45
aI96
asI77
(lp88
I21
aI12
asI78
(lp89
I19
aI84
aI92
asI79
(lp90
I90
aI89
asI80
(lp91
I39
asI81
(lp92
I44
aI58
aI84
asI82
(lp93
I37
asI83
(lp94
I20
aI29
aI47
aI53
aI45
asI84
(lp95
I78
aI81
asI85
(lp96
I30
aI45
aI49
aI62
aI14
asI86
(lp97
I63
aI74
aI36
asI87
(lp98
I29
asI88
(lp99
I4
aI15
aI73
asI89
(lp100
I79
asI90
(lp101
I7
aI79
aI34
asI91
(lp102
I46
aI57
asI92
(lp103
I50
aI66
aI78
asI93
(lp104
I24
aI47
asI94
(lp105
I23
asI95
(lp106
I17
asI96
(lp107
I76
asI97
(lp108
I67
aI42
asI98
(lp109
I63
asI99
(lp110
I23
aI58
aI30
assbsS'grid'
p111
(dp112
I0
(lp113
F59.0
aF549.0
aF9.8
asI1
(lp114
F647.0
aF843.0
aF29.400000000000002
asI2
(lp115
F549.0
aF157.0
aF9.8
asI3
(lp116
F59.0
aF843.0
aF9.8
asI4
(lp117
F255.0
aF451.0
aF9.8
asI5
(lp118
F59.0
aF745.0
aF9.8
asI6
(lp119
F451.0
aF941.0
aF9.8
asI7
(lp120
F941.0
aF549.0
aF9.8
asI8
(lp121
F941.0
aF59.0
aF9.8
asI9
(lp122
F451.0
aF255.0
aF9.8
asI10
(lp123
F843.0
aF59.0
aF19.6
asI11
(lp124
F745.0
aF59.0
aF19.6
asI12
(lp125
F59.0
aF451.0
aF39.2
asI13
(lp126
F353.0
aF255.0
aF19.6
asI14
(lp127
F353.0
aF157.0
aF19.6
asI15
(lp128
F255.0
aF549.0
aF9.8
asI16
(lp129
F255.0
aF157.0
aF29.400000000000002
asI17
(lp130
F745.0
aF353.0
aF29.400000000000002
asI18
(lp131
F549.0
aF941.0
aF19.6
asI19
(lp132
F255.0
aF647.0
aF9.8
asI20
(lp133
F745.0
aF549.0
aF9.8
asI21
(lp134
F157.0
aF745.0
aF19.6
asI22
(lp135
F745.0
aF941.0
aF9.8
asI23
(lp136
F451.0
aF157.0
aF29.400000000000002
asI24
(lp137
F843.0
aF843.0
aF9.8
asI25
(lp138
F843.0
aF157.0
aF19.6
asI26
(lp139
F59.0
aF157.0
aF19.6
asI27
(lp140
F843.0
aF549.0
aF39.2
asI28
(lp141
F157.0
aF549.0
aF9.8
asI29
(lp142
F647.0
aF255.0
aF39.2
asI30
(lp143
F549.0
aF647.0
aF29.400000000000002
asI31
(lp144
F745.0
aF745.0
aF9.8
asI32
(lp145
F59.0
aF941.0
aF19.6
asI33
(lp146
F941.0
aF647.0
aF19.6
asI34
(lp147
F745.0
aF451.0
aF29.400000000000002
asI35
(lp148
F157.0
aF157.0
aF9.8
asI36
(lp149
F549.0
aF353.0
aF29.400000000000002
asI37
(lp150
F941.0
aF941.0
aF19.6
asI38
(lp151
F59.0
aF59.0
aF19.6
asI39
(lp152
F647.0
aF59.0
aF19.6
asI40
(lp153
F157.0
aF59.0
aF9.8
asI41
(lp154
F255.0
aF59.0
aF9.8
asI42
(lp155
F353.0
aF353.0
aF19.6
asI43
(lp156
F745.0
aF843.0
aF9.8
asI44
(lp157
F255.0
aF843.0
aF19.6
asI45
(lp158
F647.0
aF353.0
aF49.0
asI46
(lp159
F353.0
aF941.0
aF29.400000000000002
asI47
(lp160
F745.0
aF647.0
aF29.400000000000002
asI48
(lp161
F255.0
aF941.0
aF29.400000000000002
asI49
(lp162
F451.0
aF451.0
aF9.8
asI50
(lp163
F451.0
aF843.0
aF9.8
asI51
(lp164
F843.0
aF647.0
aF9.8
asI52
(lp165
F941.0
aF843.0
aF19.6
asI53
(lp166
F647.0
aF647.0
aF9.8
asI54
(lp167
F157.0
aF647.0
aF29.400000000000002
asI55
(lp168
F549.0
aF745.0
aF9.8
asI56
(lp169
F941.0
aF745.0
aF9.8
asI57
(lp170
F157.0
aF843.0
aF19.6
asI58
(lp171
F451.0
aF647.0
aF19.6
asI59
(lp172
F647.0
aF941.0
aF9.8
asI60
(lp173
F941.0
aF255.0
aF19.6
asI61
(lp174
F157.0
aF451.0
aF19.6
asI62
(lp175
F353.0
aF451.0
aF9.8
asI63
(lp176
F157.0
aF255.0
aF29.400000000000002
asI64
(lp177
F549.0
aF549.0
aF9.8
asI65
(lp178
F549.0
aF255.0
aF19.6
asI66
(lp179
F549.0
aF843.0
aF19.6
asI67
(lp180
F255.0
aF353.0
aF9.8
asI68
(lp181
F941.0
aF353.0
aF19.6
asI69
(lp182
F745.0
aF157.0
aF9.8
asI70
(lp183
F843.0
aF451.0
aF9.8
asI71
(lp184
F255.0
aF745.0
aF9.8
asI72
(lp185
F843.0
aF353.0
aF58.800000000000004
asI73
(lp186
F647.0
aF745.0
aF29.400000000000002
asI74
(lp187
F59.0
aF353.0
aF19.6
asI75
(lp188
F451.0
aF59.0
aF9.8
asI76
(lp189
F549.0
aF451.0
aF29.400000000000002
asI77
(lp190
F59.0
aF647.0
aF19.6
asI78
(lp191
F353.0
aF647.0
aF29.400000000000002
asI79
(lp192
F843.0
aF255.0
aF19.6
asI80
(lp193
F549.0
aF59.0
aF9.8
asI81
(lp194
F353.0
aF843.0
aF29.400000000000002
asI82
(lp195
F843.0
aF941.0
aF9.8
asI83
(lp196
F647.0
aF549.0
aF49.0
asI84
(lp197
F353.0
aF745.0
aF19.6
asI85
(lp198
F451.0
aF353.0
aF49.0
asI86
(lp199
F157.0
aF353.0
aF29.400000000000002
asI87
(lp200
F647.0
aF157.0
aF9.8
asI88
(lp201
F353.0
aF549.0
aF29.400000000000002
asI89
(lp202
F941.0
aF157.0
aF9.8
asI90
(lp203
F941.0
aF451.0
aF29.400000000000002
asI91
(lp204
F157.0
aF941.0
aF19.6
asI92
(lp205
F451.0
aF745.0
aF29.400000000000002
asI93
(lp206
F843.0
aF745.0
aF19.6
asI94
(lp207
F353.0
aF59.0
aF9.8
asI95
(lp208
F745.0
aF255.0
aF9.8
asI96
(lp209
F647.0
aF451.0
aF9.8
asI97
(lp210
F255.0
aF255.0
aF19.6
asI98
(lp211
F59.0
aF255.0
aF9.8
asI99
(lp212
F451.0
aF549.0
aF29.400000000000002
assb.